; Listing generated by Microsoft (R) Optimizing Compiler Version 19.31.31107.0 

include listing.inc

INCLUDELIB OLDNAMES

EXTRN	longest_match:PROC
EXTRN	match_init:PROC
?my_version@?1??deflateInit2_@@9@9 DB '1.2.12', 00H	; `deflateInit2_'::`2'::my_version
	ORG $+9
configuration_table DW 00H
	DW	00H
	DW	00H
	DW	00H
	DQ	FLAT:deflate_stored
	DW	04H
	DW	04H
	DW	08H
	DW	04H
	DQ	FLAT:deflate_fast
	DW	04H
	DW	05H
	DW	010H
	DW	08H
	DQ	FLAT:deflate_fast
	DW	04H
	DW	06H
	DW	020H
	DW	020H
	DQ	FLAT:deflate_fast
	DW	04H
	DW	04H
	DW	010H
	DW	010H
	DQ	FLAT:deflate_slow
	DW	08H
	DW	010H
	DW	020H
	DW	020H
	DQ	FLAT:deflate_slow
	DW	08H
	DW	010H
	DW	080H
	DW	080H
	DQ	FLAT:deflate_slow
	DW	08H
	DW	020H
	DW	080H
	DW	0100H
	DQ	FLAT:deflate_slow
	DW	020H
	DW	080H
	DW	0102H
	DW	0400H
	DQ	FLAT:deflate_slow
	DW	020H
	DW	0102H
	DW	0102H
	DW	01000H
	DQ	FLAT:deflate_slow
PUBLIC	deflateCopy
PUBLIC	deflateBound
PUBLIC	deflateTune
PUBLIC	deflateParams
PUBLIC	deflatePrime
PUBLIC	deflatePending
PUBLIC	deflateSetHeader
PUBLIC	deflateReset
PUBLIC	deflateResetKeep
PUBLIC	deflateGetDictionary
PUBLIC	deflateSetDictionary
PUBLIC	deflateInit2_
PUBLIC	deflateInit_
PUBLIC	deflateEnd
PUBLIC	deflate
;	COMDAT pdata
pdata	SEGMENT
$pdata$deflate_huff DD imagerel deflate_huff
	DD	imagerel deflate_huff+483
	DD	imagerel $unwind$deflate_huff
pdata	ENDS
;	COMDAT pdata
pdata	SEGMENT
$pdata$deflate_rle DD imagerel deflate_rle
	DD	imagerel deflate_rle+834
	DD	imagerel $unwind$deflate_rle
pdata	ENDS
;	COMDAT pdata
pdata	SEGMENT
$pdata$deflate_slow DD imagerel deflate_slow
	DD	imagerel deflate_slow+1388
	DD	imagerel $unwind$deflate_slow
pdata	ENDS
;	COMDAT pdata
pdata	SEGMENT
$pdata$deflate_fast DD imagerel deflate_fast
	DD	imagerel deflate_fast+1111
	DD	imagerel $unwind$deflate_fast
pdata	ENDS
;	COMDAT pdata
pdata	SEGMENT
$pdata$deflate_stored DD imagerel deflate_stored
	DD	imagerel deflate_stored+25
	DD	imagerel $unwind$deflate_stored
pdata	ENDS
;	COMDAT pdata
pdata	SEGMENT
$pdata$0$deflate_stored DD imagerel deflate_stored+25
	DD	imagerel deflate_stored+32
	DD	imagerel $chain$0$deflate_stored
pdata	ENDS
;	COMDAT pdata
pdata	SEGMENT
$pdata$2$deflate_stored DD imagerel deflate_stored+32
	DD	imagerel deflate_stored+431
	DD	imagerel $chain$2$deflate_stored
pdata	ENDS
;	COMDAT pdata
pdata	SEGMENT
$pdata$3$deflate_stored DD imagerel deflate_stored+431
	DD	imagerel deflate_stored+659
	DD	imagerel $chain$3$deflate_stored
pdata	ENDS
;	COMDAT pdata
pdata	SEGMENT
$pdata$4$deflate_stored DD imagerel deflate_stored+659
	DD	imagerel deflate_stored+1088
	DD	imagerel $chain$4$deflate_stored
pdata	ENDS
;	COMDAT pdata
pdata	SEGMENT
$pdata$fill_window DD imagerel fill_window
	DD	imagerel fill_window+564
	DD	imagerel $unwind$fill_window
pdata	ENDS
;	COMDAT pdata
pdata	SEGMENT
$pdata$lm_init DD imagerel lm_init
	DD	imagerel lm_init+180
	DD	imagerel $unwind$lm_init
pdata	ENDS
;	COMDAT pdata
pdata	SEGMENT
$pdata$read_buf DD imagerel read_buf
	DD	imagerel read_buf+160
	DD	imagerel $unwind$read_buf
pdata	ENDS
;	COMDAT pdata
pdata	SEGMENT
$pdata$deflateCopy DD imagerel $LN12
	DD	imagerel $LN12+41
	DD	imagerel $unwind$deflateCopy
pdata	ENDS
;	COMDAT pdata
pdata	SEGMENT
$pdata$1$deflateCopy DD imagerel $LN12+41
	DD	imagerel $LN12+450
	DD	imagerel $chain$1$deflateCopy
pdata	ENDS
;	COMDAT pdata
pdata	SEGMENT
$pdata$3$deflateCopy DD imagerel $LN12+450
	DD	imagerel $LN12+479
	DD	imagerel $chain$3$deflateCopy
pdata	ENDS
;	COMDAT pdata
pdata	SEGMENT
$pdata$4$deflateCopy DD imagerel $LN12+479
	DD	imagerel $LN12+490
	DD	imagerel $chain$4$deflateCopy
pdata	ENDS
;	COMDAT pdata
pdata	SEGMENT
$pdata$flush_pending DD imagerel flush_pending
	DD	imagerel flush_pending+52
	DD	imagerel $unwind$flush_pending
pdata	ENDS
;	COMDAT pdata
pdata	SEGMENT
$pdata$0$flush_pending DD imagerel flush_pending+52
	DD	imagerel flush_pending+91
	DD	imagerel $chain$0$flush_pending
pdata	ENDS
;	COMDAT pdata
pdata	SEGMENT
$pdata$1$flush_pending DD imagerel flush_pending+91
	DD	imagerel flush_pending+115
	DD	imagerel $chain$1$flush_pending
pdata	ENDS
;	COMDAT pdata
pdata	SEGMENT
$pdata$deflateBound DD imagerel $LN30
	DD	imagerel $LN30+273
	DD	imagerel $unwind$deflateBound
pdata	ENDS
;	COMDAT pdata
pdata	SEGMENT
$pdata$deflateTune DD imagerel $LN5
	DD	imagerel $LN5+71
	DD	imagerel $unwind$deflateTune
pdata	ENDS
;	COMDAT pdata
pdata	SEGMENT
$pdata$deflateParams DD imagerel $LN24
	DD	imagerel $LN24+378
	DD	imagerel $unwind$deflateParams
pdata	ENDS
;	COMDAT pdata
pdata	SEGMENT
$pdata$deflatePrime DD imagerel $LN14
	DD	imagerel $LN14+191
	DD	imagerel $unwind$deflatePrime
pdata	ENDS
;	COMDAT pdata
pdata	SEGMENT
$pdata$deflatePending DD imagerel $LN8
	DD	imagerel $LN8+69
	DD	imagerel $unwind$deflatePending
pdata	ENDS
;	COMDAT pdata
pdata	SEGMENT
$pdata$deflateSetHeader DD imagerel $LN6
	DD	imagerel $LN6+50
	DD	imagerel $unwind$deflateSetHeader
pdata	ENDS
;	COMDAT pdata
pdata	SEGMENT
$pdata$deflateReset DD imagerel $LN6
	DD	imagerel $LN6+46
	DD	imagerel $unwind$deflateReset
pdata	ENDS
;	COMDAT pdata
pdata	SEGMENT
$pdata$deflateResetKeep DD imagerel $LN8
	DD	imagerel $LN8+158
	DD	imagerel $unwind$deflateResetKeep
pdata	ENDS
;	COMDAT pdata
pdata	SEGMENT
$pdata$deflateGetDictionary DD imagerel $LN8
	DD	imagerel $LN8+122
	DD	imagerel $unwind$deflateGetDictionary
pdata	ENDS
;	COMDAT pdata
pdata	SEGMENT
$pdata$deflateSetDictionary DD imagerel $LN32
	DD	imagerel $LN32+86
	DD	imagerel $unwind$deflateSetDictionary
pdata	ENDS
;	COMDAT pdata
pdata	SEGMENT
$pdata$2$deflateSetDictionary DD imagerel $LN32+86
	DD	imagerel $LN32+474
	DD	imagerel $chain$2$deflateSetDictionary
pdata	ENDS
;	COMDAT pdata
pdata	SEGMENT
$pdata$3$deflateSetDictionary DD imagerel $LN32+474
	DD	imagerel $LN32+490
	DD	imagerel $chain$3$deflateSetDictionary
pdata	ENDS
;	COMDAT pdata
pdata	SEGMENT
$pdata$deflateInit2_ DD imagerel $LN24
	DD	imagerel $LN24+81
	DD	imagerel $unwind$deflateInit2_
pdata	ENDS
;	COMDAT pdata
pdata	SEGMENT
$pdata$0$deflateInit2_ DD imagerel $LN24+81
	DD	imagerel $LN24+262
	DD	imagerel $chain$0$deflateInit2_
pdata	ENDS
;	COMDAT pdata
pdata	SEGMENT
$pdata$1$deflateInit2_ DD imagerel $LN24+262
	DD	imagerel $LN24+552
	DD	imagerel $chain$1$deflateInit2_
pdata	ENDS
;	COMDAT pdata
pdata	SEGMENT
$pdata$2$deflateInit2_ DD imagerel $LN24+552
	DD	imagerel $LN24+576
	DD	imagerel $chain$2$deflateInit2_
pdata	ENDS
;	COMDAT pdata
pdata	SEGMENT
$pdata$4$deflateInit2_ DD imagerel $LN24+576
	DD	imagerel $LN24+609
	DD	imagerel $chain$4$deflateInit2_
pdata	ENDS
;	COMDAT pdata
pdata	SEGMENT
$pdata$5$deflateInit2_ DD imagerel $LN24+609
	DD	imagerel $LN24+616
	DD	imagerel $chain$5$deflateInit2_
pdata	ENDS
;	COMDAT pdata
pdata	SEGMENT
$pdata$6$deflateInit2_ DD imagerel $LN24+616
	DD	imagerel $LN24+640
	DD	imagerel $chain$6$deflateInit2_
pdata	ENDS
;	COMDAT pdata
pdata	SEGMENT
$pdata$slide_hash DD imagerel slide_hash
	DD	imagerel slide_hash+117
	DD	imagerel $unwind$slide_hash
pdata	ENDS
;	COMDAT pdata
pdata	SEGMENT
$pdata$deflateInit_ DD imagerel $LN4
	DD	imagerel $LN4+50
	DD	imagerel $unwind$deflateInit_
pdata	ENDS
;	COMDAT pdata
pdata	SEGMENT
$pdata$deflateEnd DD imagerel $LN10
	DD	imagerel $LN10+176
	DD	imagerel $unwind$deflateEnd
pdata	ENDS
;	COMDAT pdata
pdata	SEGMENT
$pdata$deflate DD imagerel $LN171
	DD	imagerel $LN171+42
	DD	imagerel $unwind$deflate
pdata	ENDS
;	COMDAT pdata
pdata	SEGMENT
$pdata$5$deflate DD imagerel $LN171+42
	DD	imagerel $LN171+282
	DD	imagerel $chain$5$deflate
pdata	ENDS
;	COMDAT pdata
pdata	SEGMENT
$pdata$7$deflate DD imagerel $LN171+282
	DD	imagerel $LN171+2352
	DD	imagerel $chain$7$deflate
pdata	ENDS
;	COMDAT pdata
pdata	SEGMENT
$pdata$8$deflate DD imagerel $LN171+2352
	DD	imagerel $LN171+2381
	DD	imagerel $chain$8$deflate
pdata	ENDS
;	COMDAT pdata
pdata	SEGMENT
$pdata$9$deflate DD imagerel $LN171+2381
	DD	imagerel $LN171+2394
	DD	imagerel $chain$9$deflate
;	COMDAT xdata
xdata	SEGMENT
$chain$9$deflate DD 021H
	DD	imagerel $LN171
	DD	imagerel $LN171+42
	DD	imagerel $unwind$deflate
xdata	ENDS
;	COMDAT xdata
xdata	SEGMENT
$chain$8$deflate DD 020021H
	DD	0a3400H
	DD	imagerel $LN171
	DD	imagerel $LN171+42
	DD	imagerel $unwind$deflate
xdata	ENDS
;	COMDAT xdata
xdata	SEGMENT
$chain$7$deflate DD 0c0021H
	DD	04f400H
	DD	05e400H
	DD	06c400H
	DD	0c6400H
	DD	0b5400H
	DD	0a3400H
	DD	imagerel $LN171
	DD	imagerel $LN171+42
	DD	imagerel $unwind$deflate
xdata	ENDS
;	COMDAT xdata
xdata	SEGMENT
$chain$5$deflate DD 0c4e21H
	DD	04f44eH
	DD	05e449H
	DD	06c444H
	DD	0c643fH
	DD	0b543aH
	DD	0a3405H
	DD	imagerel $LN171
	DD	imagerel $LN171+42
	DD	imagerel $unwind$deflate
xdata	ENDS
;	COMDAT xdata
xdata	SEGMENT
$unwind$deflate DD 030801H
	DD	0d0046208H
	DD	07002H
xdata	ENDS
;	COMDAT xdata
xdata	SEGMENT
$unwind$deflateEnd DD 083001H
	DD	087430H
	DD	07642bH
	DD	065426H
	DD	030023206H
xdata	ENDS
;	COMDAT xdata
xdata	SEGMENT
$unwind$deflateInit_ DD 010401H
	DD	08204H
xdata	ENDS
;	COMDAT xdata
xdata	SEGMENT
$unwind$slide_hash DD 020501H
	DD	013405H
xdata	ENDS
;	COMDAT xdata
xdata	SEGMENT
$chain$6$deflateInit2_ DD 021H
	DD	imagerel $LN24
	DD	imagerel $LN24+81
	DD	imagerel $unwind$deflateInit2_
xdata	ENDS
;	COMDAT xdata
xdata	SEGMENT
$chain$5$deflateInit2_ DD 020021H
	DD	0a5400H
	DD	imagerel $LN24
	DD	imagerel $LN24+81
	DD	imagerel $unwind$deflateInit2_
xdata	ENDS
;	COMDAT xdata
xdata	SEGMENT
$chain$4$deflateInit2_ DD 040021H
	DD	0b7400H
	DD	0a5400H
	DD	imagerel $LN24
	DD	imagerel $LN24+81
	DD	imagerel $unwind$deflateInit2_
xdata	ENDS
;	COMDAT xdata
xdata	SEGMENT
$chain$2$deflateInit2_ DD 021H
	DD	imagerel $LN24+81
	DD	imagerel $LN24+262
	DD	imagerel $chain$0$deflateInit2_
xdata	ENDS
;	COMDAT xdata
xdata	SEGMENT
$chain$1$deflateInit2_ DD 020521H
	DD	0b7405H
	DD	imagerel $LN24+81
	DD	imagerel $LN24+262
	DD	imagerel $chain$0$deflateInit2_
xdata	ENDS
;	COMDAT xdata
xdata	SEGMENT
$chain$0$deflateInit2_ DD 020521H
	DD	0a5405H
	DD	imagerel $LN24
	DD	imagerel $LN24+81
	DD	imagerel $unwind$deflateInit2_
xdata	ENDS
;	COMDAT xdata
xdata	SEGMENT
$unwind$deflateInit2_ DD 081201H
	DD	0c3412H
	DD	0f00e3212H
	DD	0d00ae00cH
	DD	06006c008H
xdata	ENDS
;	COMDAT xdata
xdata	SEGMENT
$chain$3$deflateSetDictionary DD 021H
	DD	imagerel $LN32
	DD	imagerel $LN32+86
	DD	imagerel $unwind$deflateSetDictionary
xdata	ENDS
;	COMDAT xdata
xdata	SEGMENT
$chain$2$deflateSetDictionary DD 060f21H
	DD	0cf40fH
	DD	0bd40aH
	DD	0ac405H
	DD	imagerel $LN32
	DD	imagerel $LN32+86
	DD	imagerel $unwind$deflateSetDictionary
xdata	ENDS
;	COMDAT xdata
xdata	SEGMENT
$unwind$deflateSetDictionary DD 060b01H
	DD	0e007320bH
	DD	060047005H
	DD	030025003H
xdata	ENDS
;	COMDAT xdata
xdata	SEGMENT
$unwind$deflateGetDictionary DD 042c01H
	DD	06342cH
	DD	070023206H
xdata	ENDS
;	COMDAT xdata
xdata	SEGMENT
$unwind$deflateResetKeep DD 043501H
	DD	063435H
	DD	070023206H
xdata	ENDS
;	COMDAT xdata
xdata	SEGMENT
$unwind$deflateReset DD 040a01H
	DD	06340aH
	DD	07006320aH
xdata	ENDS
;	COMDAT xdata
xdata	SEGMENT
$unwind$deflateSetHeader DD 010401H
	DD	04204H
xdata	ENDS
;	COMDAT xdata
xdata	SEGMENT
$unwind$deflatePending DD 010401H
	DD	04204H
xdata	ENDS
;	COMDAT xdata
xdata	SEGMENT
$unwind$deflatePrime DD 040a01H
	DD	06340aH
	DD	07006320aH
xdata	ENDS
;	COMDAT xdata
xdata	SEGMENT
$unwind$deflateParams DD 0c1e01H
	DD	0b741eH
	DD	0a641eH
	DD	09541eH
	DD	08341eH
	DD	0f01a321eH
	DD	0c016e018H
xdata	ENDS
;	COMDAT xdata
xdata	SEGMENT
$unwind$deflateTune DD 010401H
	DD	04204H
xdata	ENDS
;	COMDAT xdata
xdata	SEGMENT
$unwind$deflateBound DD 010401H
	DD	04204H
xdata	ENDS
;	COMDAT xdata
xdata	SEGMENT
$chain$1$flush_pending DD 021H
	DD	imagerel flush_pending
	DD	imagerel flush_pending+52
	DD	imagerel $unwind$flush_pending
xdata	ENDS
;	COMDAT xdata
xdata	SEGMENT
$chain$0$flush_pending DD 020521H
	DD	063405H
	DD	imagerel flush_pending
	DD	imagerel flush_pending+52
	DD	imagerel $unwind$flush_pending
xdata	ENDS
;	COMDAT xdata
xdata	SEGMENT
$unwind$flush_pending DD 060f01H
	DD	08640fH
	DD	07540fH
	DD	0700b320fH
xdata	ENDS
;	COMDAT xdata
xdata	SEGMENT
$chain$4$deflateCopy DD 021H
	DD	imagerel $LN12
	DD	imagerel $LN12+41
	DD	imagerel $unwind$deflateCopy
xdata	ENDS
;	COMDAT xdata
xdata	SEGMENT
$chain$3$deflateCopy DD 040021H
	DD	076400H
	DD	063400H
	DD	imagerel $LN12
	DD	imagerel $LN12+41
	DD	imagerel $unwind$deflateCopy
xdata	ENDS
;	COMDAT xdata
xdata	SEGMENT
$chain$1$deflateCopy DD 040d21H
	DD	07640dH
	DD	063405H
	DD	imagerel $LN12
	DD	imagerel $LN12+41
	DD	imagerel $unwind$deflateCopy
xdata	ENDS
;	COMDAT xdata
xdata	SEGMENT
$unwind$deflateCopy DD 020601H
	DD	070023206H
xdata	ENDS
;	COMDAT xdata
xdata	SEGMENT
$unwind$read_buf DD 084701H
	DD	065447H
	DD	08640fH
	DD	07340fH
	DD	0700b320fH
xdata	ENDS
;	COMDAT xdata
xdata	SEGMENT
$unwind$lm_init DD 040a01H
	DD	06340aH
	DD	07006320aH
xdata	ENDS
;	COMDAT xdata
xdata	SEGMENT
$unwind$fill_window DD 060f01H
	DD	07640fH
	DD	06340fH
	DD	0700b320fH
xdata	ENDS
;	COMDAT xdata
xdata	SEGMENT
$chain$4$deflate_stored DD 020021H
	DD	057400H
	DD	imagerel deflate_stored
	DD	imagerel deflate_stored+25
	DD	imagerel $unwind$deflate_stored
xdata	ENDS
;	COMDAT xdata
xdata	SEGMENT
$chain$3$deflate_stored DD 020021H
	DD	057400H
	DD	imagerel deflate_stored+25
	DD	imagerel deflate_stored+32
	DD	imagerel $chain$0$deflate_stored
xdata	ENDS
;	COMDAT xdata
xdata	SEGMENT
$chain$2$deflate_stored DD 041021H
	DD	057410H
	DD	0d5405H
	DD	imagerel deflate_stored+25
	DD	imagerel deflate_stored+32
	DD	imagerel $chain$0$deflate_stored
xdata	ENDS
;	COMDAT xdata
xdata	SEGMENT
$chain$0$deflate_stored DD 020521H
	DD	04c405H
	DD	imagerel deflate_stored
	DD	imagerel deflate_stored+25
	DD	imagerel $unwind$deflate_stored
xdata	ENDS
;	COMDAT xdata
xdata	SEGMENT
$unwind$deflate_stored DD 060d01H
	DD	0f009520dH
	DD	0d005e007H
	DD	030026003H
xdata	ENDS
;	COMDAT xdata
xdata	SEGMENT
$unwind$deflate_fast DD 0c1c01H
	DD	0c641cH
	DD	0b541cH
	DD	0a341cH
	DD	0f018321cH
	DD	0d014e016H
	DD	07010c012H
xdata	ENDS
;	COMDAT xdata
xdata	SEGMENT
$unwind$deflate_slow DD 0c1c01H
	DD	0c641cH
	DD	0b541cH
	DD	0a341cH
	DD	0f018321cH
	DD	0d014e016H
	DD	07010c012H
xdata	ENDS
;	COMDAT xdata
xdata	SEGMENT
$unwind$deflate_rle DD 0c2401H
	DD	08e424H
	DD	0b6418H
	DD	0a5418H
	DD	093418H
	DD	0f0143218H
	DD	07010c012H
xdata	ENDS
;	COMDAT xdata
xdata	SEGMENT
$unwind$deflate_huff DD 060f01H
	DD	07640fH
	DD	06340fH
	DD	0700b320fH
; Function compile flags: /Ogtpy
; File G:\1_Projects\BRDF\DisneyBRDF\zlib-1.2.12\deflate.c
;	COMDAT deflate
_TEXT	SEGMENT
strm$ = 80
flush$ = 88
deflate	PROC						; COMDAT

; 807  : {

$LN171:
  00000	40 57		 push	 rdi
  00002	41 55		 push	 r13
  00004	48 83 ec 38	 sub	 rsp, 56			; 00000038H
  00008	44 8b ea	 mov	 r13d, edx
  0000b	48 8b f9	 mov	 rdi, rcx

; 808  :     int old_flush; /* value of flush param for previous deflate call */
; 809  :     deflate_state *s;
; 810  : 
; 811  :     if (deflateStateCheck(strm) || flush > Z_BLOCK || flush < 0) {

  0000e	e8 00 00 00 00	 call	 deflateStateCheck
  00013	85 c0		 test	 eax, eax
  00015	0f 85 32 09 00
	00		 jne	 $LN32@deflate
  0001b	41 83 fd 05	 cmp	 r13d, 5
  0001f	0f 87 28 09 00
	00		 ja	 $LN32@deflate

; 813  :     }
; 814  :     s = strm->state;
; 815  : 
; 816  :     if (strm->next_out == Z_NULL ||
; 817  :         (strm->avail_in != 0 && strm->next_in == Z_NULL) ||

  00025	48 83 7f 10 00	 cmp	 QWORD PTR [rdi+16], 0
  0002a	48 89 5c 24 50	 mov	 QWORD PTR [rsp+80], rbx
  0002f	48 8b 5f 28	 mov	 rbx, QWORD PTR [rdi+40]
  00033	0f 84 f7 08 00
	00		 je	 $LN34@deflate
  00039	39 47 08	 cmp	 DWORD PTR [rdi+8], eax
  0003c	74 0a		 je	 SHORT $LN35@deflate
  0003e	48 83 3f 00	 cmp	 QWORD PTR [rdi], 0
  00042	0f 84 e8 08 00
	00		 je	 $LN34@deflate
$LN35@deflate:
  00048	81 7b 08 9a 02
	00 00		 cmp	 DWORD PTR [rbx+8], 666	; 0000029aH
  0004f	75 0a		 jne	 SHORT $LN33@deflate
  00051	41 83 fd 04	 cmp	 r13d, 4
  00055	0f 85 d5 08 00
	00		 jne	 $LN34@deflate
$LN33@deflate:

; 820  :     }
; 821  :     if (strm->avail_out == 0) ERR_RETURN(strm, Z_BUF_ERROR);

  0005b	83 7f 18 00	 cmp	 DWORD PTR [rdi+24], 0
  0005f	48 89 6c 24 58	 mov	 QWORD PTR [rsp+88], rbp
  00064	48 89 74 24 60	 mov	 QWORD PTR [rsp+96], rsi
  00069	4c 89 64 24 30	 mov	 QWORD PTR [rsp+48], r12
  0006e	4c 89 74 24 28	 mov	 QWORD PTR [rsp+40], r14
  00073	4c 89 7c 24 20	 mov	 QWORD PTR [rsp+32], r15
  00078	74 6a		 je	 SHORT $LN157@deflate

; 822  : 
; 823  :     old_flush = s->last_flush;

  0007a	8b 53 40	 mov	 edx, DWORD PTR [rbx+64]

; 824  :     s->last_flush = flush;
; 825  : 
; 826  :     /* Flush as much pending output as possible */
; 827  :     if (s->pending != 0) {

  0007d	33 f6		 xor	 esi, esi
  0007f	44 89 6b 40	 mov	 DWORD PTR [rbx+64], r13d
  00083	39 73 28	 cmp	 DWORD PTR [rbx+40], esi
  00086	74 13		 je	 SHORT $LN37@deflate

; 828  :         flush_pending(strm);

  00088	48 8b cf	 mov	 rcx, rdi
  0008b	e8 00 00 00 00	 call	 flush_pending

; 829  :         if (strm->avail_out == 0) {

  00090	39 77 18	 cmp	 DWORD PTR [rdi+24], esi
  00093	0f 84 89 08 00
	00		 je	 $LN152@deflate
  00099	eb 36		 jmp	 SHORT $LN40@deflate
$LN37@deflate:

; 830  :             /* Since avail_out is 0, deflate will be called again with
; 831  :              * more output space, but possibly with both pending and
; 832  :              * avail_in equal to zero. There won't be anything to do,
; 833  :              * but this is not an error situation so make sure we
; 834  :              * return OK instead of BUF_ERROR at next call of deflate:
; 835  :              */
; 836  :             s->last_flush = -1;
; 837  :             return Z_OK;
; 838  :         }
; 839  : 
; 840  :     /* Make sure there is something to do and avoid duplicate consecutive
; 841  :      * flushes. For repeated and useless calls with Z_FINISH, we keep
; 842  :      * returning Z_STREAM_END instead of Z_BUF_ERROR.
; 843  :      */
; 844  :     } else if (strm->avail_in == 0 && RANK(flush) <= RANK(old_flush) &&

  0009b	39 77 08	 cmp	 DWORD PTR [rdi+8], esi
  0009e	75 31		 jne	 SHORT $LN40@deflate
  000a0	83 fa 04	 cmp	 edx, 4
  000a3	41 b8 09 00 00
	00		 mov	 r8d, 9
  000a9	8b c6		 mov	 eax, esi
  000ab	8b ce		 mov	 ecx, esi
  000ad	41 0f 4f c0	 cmovg	 eax, r8d
  000b1	03 d2		 add	 edx, edx
  000b3	2b d0		 sub	 edx, eax
  000b5	42 8d 04 6d 00
	00 00 00	 lea	 eax, DWORD PTR [r13*2]
  000bd	41 83 fd 04	 cmp	 r13d, 4
  000c1	41 0f 4f c8	 cmovg	 ecx, r8d
  000c5	2b c1		 sub	 eax, ecx
  000c7	3b c2		 cmp	 eax, edx
  000c9	7f 06		 jg	 SHORT $LN40@deflate
  000cb	41 83 fd 04	 cmp	 r13d, 4
  000cf	75 13		 jne	 SHORT $LN157@deflate
$LN40@deflate:

; 845  :                flush != Z_FINISH) {
; 846  :         ERR_RETURN(strm, Z_BUF_ERROR);
; 847  :     }
; 848  : 
; 849  :     /* User must not provide more input after the first FINISH: */
; 850  :     if (s->status == FINISH_STATE && strm->avail_in != 0) {

  000d1	8b 43 08	 mov	 eax, DWORD PTR [rbx+8]
  000d4	3d 9a 02 00 00	 cmp	 eax, 666		; 0000029aH
  000d9	75 3f		 jne	 SHORT $LN41@deflate
  000db	39 77 08	 cmp	 DWORD PTR [rdi+8], esi
  000de	0f 84 05 01 00
	00		 je	 $LN140@deflate
$LN157@deflate:

; 851  :         ERR_RETURN(strm, Z_BUF_ERROR);

  000e4	48 8b 05 38 00
	00 00		 mov	 rax, QWORD PTR z_errmsg+56
  000eb	48 89 47 20	 mov	 QWORD PTR [rdi+32], rax
  000ef	b8 fb ff ff ff	 mov	 eax, -5
$LN168@deflate:
  000f4	4c 8b 74 24 28	 mov	 r14, QWORD PTR [rsp+40]
  000f9	4c 8b 64 24 30	 mov	 r12, QWORD PTR [rsp+48]
  000fe	48 8b 74 24 60	 mov	 rsi, QWORD PTR [rsp+96]
  00103	48 8b 6c 24 58	 mov	 rbp, QWORD PTR [rsp+88]
  00108	4c 8b 7c 24 20	 mov	 r15, QWORD PTR [rsp+32]
  0010d	48 8b 5c 24 50	 mov	 rbx, QWORD PTR [rsp+80]

; 1116 : }

  00112	48 83 c4 38	 add	 rsp, 56			; 00000038H
  00116	41 5d		 pop	 r13
  00118	5f		 pop	 rdi
  00119	c3		 ret	 0
$LN41@deflate:

; 852  :     }
; 853  : 
; 854  :     /* Write the header */
; 855  :     if (s->status == INIT_STATE && s->wrap == 0)

  0011a	83 f8 2a	 cmp	 eax, 42			; 0000002aH
  0011d	0f 85 c6 00 00
	00		 jne	 $LN140@deflate
  00123	39 73 2c	 cmp	 DWORD PTR [rbx+44], esi
  00126	75 0c		 jne	 SHORT $LN151@deflate

; 856  :         s->status = BUSY_STATE;

  00128	c7 43 08 71 00
	00 00		 mov	 DWORD PTR [rbx+8], 113	; 00000071H

; 1010 :         }
; 1011 :         s->status = HCRC_STATE;

  0012f	e9 b5 00 00 00	 jmp	 $LN140@deflate
$LN151@deflate:

; 857  :     if (s->status == INIT_STATE) {
; 858  :         /* zlib header */
; 859  :         uInt header = (Z_DEFLATED + ((s->w_bits-8)<<4)) << 8;

  00134	8b 53 48	 mov	 edx, DWORD PTR [rbx+72]
  00137	c1 e2 0c	 shl	 edx, 12
  0013a	81 c2 00 88 ff
	ff		 add	 edx, -30720		; ffff8800H

; 860  :         uInt level_flags;
; 861  : 
; 862  :         if (s->strategy >= Z_HUFFMAN_ONLY || s->level < 2)

  00140	83 bb b0 00 00
	00 02		 cmp	 DWORD PTR [rbx+176], 2
  00147	7d 30		 jge	 SHORT $LN130@deflate
  00149	8b 83 ac 00 00
	00		 mov	 eax, DWORD PTR [rbx+172]
  0014f	83 f8 02	 cmp	 eax, 2
  00152	7c 25		 jl	 SHORT $LN130@deflate

; 864  :         else if (s->level < 6)

  00154	83 f8 06	 cmp	 eax, 6
  00157	7d 0a		 jge	 SHORT $LN47@deflate

; 865  :             level_flags = 1;

  00159	b8 40 00 00 00	 mov	 eax, 64			; 00000040H
  0015e	8d 48 20	 lea	 ecx, QWORD PTR [rax+32]
  00161	eb 1d		 jmp	 SHORT $LN50@deflate
$LN47@deflate:

; 866  :         else if (s->level == 6)

  00163	75 0a		 jne	 SHORT $LN49@deflate

; 867  :             level_flags = 2;

  00165	b8 80 00 00 00	 mov	 eax, 128		; 00000080H
  0016a	8d 48 20	 lea	 ecx, QWORD PTR [rax+32]
  0016d	eb 11		 jmp	 SHORT $LN50@deflate
$LN49@deflate:

; 868  :         else
; 869  :             level_flags = 3;

  0016f	b8 c0 00 00 00	 mov	 eax, 192		; 000000c0H
  00174	8d 48 20	 lea	 ecx, QWORD PTR [rax+32]
  00177	eb 07		 jmp	 SHORT $LN50@deflate
$LN130@deflate:

; 863  :             level_flags = 0;

  00179	8b c6		 mov	 eax, esi
  0017b	b9 20 00 00 00	 mov	 ecx, 32			; 00000020H
$LN50@deflate:

; 870  :         header |= (level_flags << 6);
; 871  :         if (s->strstart != 0) header |= PRESET_DICT;
; 872  :         header += 31 - (header % 31);

  00180	39 b3 94 00 00
	00		 cmp	 DWORD PTR [rbx+148], esi
  00186	0f 44 c8	 cmove	 ecx, eax
  00189	b8 85 10 42 08	 mov	 eax, 138547333		; 08421085H
  0018e	0b ca		 or	 ecx, edx
  00190	f7 e1		 mul	 ecx
  00192	2b ca		 sub	 ecx, edx
  00194	d1 e9		 shr	 ecx, 1
  00196	03 ca		 add	 ecx, edx
  00198	c1 e9 04	 shr	 ecx, 4
  0019b	ff c1		 inc	 ecx
  0019d	6b d1 1f	 imul	 edx, ecx, 31

; 873  : 
; 874  :         putShortMSB(s, header);

  001a0	48 8b cb	 mov	 rcx, rbx
  001a3	e8 00 00 00 00	 call	 putShortMSB

; 875  : 
; 876  :         /* Save the adler32 of the preset dictionary: */
; 877  :         if (s->strstart != 0) {

  001a8	39 b3 94 00 00
	00		 cmp	 DWORD PTR [rbx+148], esi
  001ae	74 12		 je	 SHORT $LN138@deflate

; 878  :             putShortMSB(s, (uInt)(strm->adler >> 16));

  001b0	0f b7 57 4e	 movzx	 edx, WORD PTR [rdi+78]
  001b4	e8 00 00 00 00	 call	 putShortMSB

; 879  :             putShortMSB(s, (uInt)(strm->adler & 0xffff));

  001b9	0f b7 57 4c	 movzx	 edx, WORD PTR [rdi+76]
  001bd	e8 00 00 00 00	 call	 putShortMSB
$LN138@deflate:

; 880  :         }
; 881  :         strm->adler = adler32(0L, Z_NULL, 0);

  001c2	45 33 c0	 xor	 r8d, r8d
  001c5	33 d2		 xor	 edx, edx
  001c7	33 c9		 xor	 ecx, ecx
  001c9	e8 00 00 00 00	 call	 adler32
  001ce	89 47 4c	 mov	 DWORD PTR [rdi+76], eax

; 882  :         s->status = BUSY_STATE;
; 883  : 
; 884  :         /* Compression must start with an empty pending buffer */
; 885  :         flush_pending(strm);

  001d1	48 8b cf	 mov	 rcx, rdi
  001d4	c7 43 08 71 00
	00 00		 mov	 DWORD PTR [rbx+8], 113	; 00000071H
  001db	e8 00 00 00 00	 call	 flush_pending

; 886  :         if (s->pending != 0) {

  001e0	39 73 28	 cmp	 DWORD PTR [rbx+40], esi
  001e3	0f 85 39 07 00
	00		 jne	 $LN152@deflate
$LN140@deflate:

; 887  :             s->last_flush = -1;
; 888  :             return Z_OK;
; 889  :         }
; 890  :     }
; 891  : #ifdef GZIP
; 892  :     if (s->status == GZIP_STATE) {

  001e9	83 7b 08 39	 cmp	 DWORD PTR [rbx+8], 57	; 00000039H
  001ed	0f 85 51 02 00
	00		 jne	 $LN56@deflate

; 893  :         /* gzip header */
; 894  :         strm->adler = crc32(0L, Z_NULL, 0);

  001f3	45 33 c0	 xor	 r8d, r8d
  001f6	33 d2		 xor	 edx, edx
  001f8	33 c9		 xor	 ecx, ecx
  001fa	e8 00 00 00 00	 call	 crc32
  001ff	89 47 4c	 mov	 DWORD PTR [rdi+76], eax

; 895  :         put_byte(s, 31);

  00202	8b 4b 28	 mov	 ecx, DWORD PTR [rbx+40]
  00205	48 8b 43 10	 mov	 rax, QWORD PTR [rbx+16]
  00209	c6 04 01 1f	 mov	 BYTE PTR [rcx+rax], 31
  0020d	ff 43 28	 inc	 DWORD PTR [rbx+40]
  00210	8b 4b 28	 mov	 ecx, DWORD PTR [rbx+40]

; 896  :         put_byte(s, 139);

  00213	48 8b 43 10	 mov	 rax, QWORD PTR [rbx+16]
  00217	c6 04 01 8b	 mov	 BYTE PTR [rcx+rax], 139	; 0000008bH
  0021b	ff 43 28	 inc	 DWORD PTR [rbx+40]
  0021e	8b 4b 28	 mov	 ecx, DWORD PTR [rbx+40]

; 897  :         put_byte(s, 8);

  00221	48 8b 43 10	 mov	 rax, QWORD PTR [rbx+16]
  00225	c6 04 01 08	 mov	 BYTE PTR [rcx+rax], 8
  00229	ff 43 28	 inc	 DWORD PTR [rbx+40]

; 898  :         if (s->gzhead == Z_NULL) {

  0022c	4c 8b 43 30	 mov	 r8, QWORD PTR [rbx+48]
  00230	44 8b 4b 28	 mov	 r9d, DWORD PTR [rbx+40]
  00234	4d 85 c0	 test	 r8, r8
  00237	0f 85 b0 00 00
	00		 jne	 $LN55@deflate

; 899  :             put_byte(s, 0);

  0023d	48 8b 43 10	 mov	 rax, QWORD PTR [rbx+16]
  00241	41 88 34 01	 mov	 BYTE PTR [r9+rax], sil
  00245	8b 43 28	 mov	 eax, DWORD PTR [rbx+40]
  00248	ff c0		 inc	 eax
  0024a	89 43 28	 mov	 DWORD PTR [rbx+40], eax

; 900  :             put_byte(s, 0);

  0024d	8b c8		 mov	 ecx, eax
  0024f	48 8b 43 10	 mov	 rax, QWORD PTR [rbx+16]
  00253	40 88 34 01	 mov	 BYTE PTR [rcx+rax], sil
  00257	8b 43 28	 mov	 eax, DWORD PTR [rbx+40]
  0025a	ff c0		 inc	 eax
  0025c	89 43 28	 mov	 DWORD PTR [rbx+40], eax

; 901  :             put_byte(s, 0);

  0025f	8b c8		 mov	 ecx, eax
  00261	48 8b 43 10	 mov	 rax, QWORD PTR [rbx+16]
  00265	40 88 34 01	 mov	 BYTE PTR [rcx+rax], sil
  00269	8b 43 28	 mov	 eax, DWORD PTR [rbx+40]
  0026c	ff c0		 inc	 eax
  0026e	89 43 28	 mov	 DWORD PTR [rbx+40], eax

; 902  :             put_byte(s, 0);

  00271	8b c8		 mov	 ecx, eax
  00273	48 8b 43 10	 mov	 rax, QWORD PTR [rbx+16]
  00277	40 88 34 01	 mov	 BYTE PTR [rcx+rax], sil
  0027b	8b 43 28	 mov	 eax, DWORD PTR [rbx+40]
  0027e	ff c0		 inc	 eax
  00280	89 43 28	 mov	 DWORD PTR [rbx+40], eax

; 903  :             put_byte(s, 0);

  00283	8b c8		 mov	 ecx, eax
  00285	48 8b 43 10	 mov	 rax, QWORD PTR [rbx+16]
  00289	40 88 34 01	 mov	 BYTE PTR [rcx+rax], sil
  0028d	8b 4b 28	 mov	 ecx, DWORD PTR [rbx+40]

; 904  :             put_byte(s, s->level == 9 ? 2 :

  00290	8b 83 ac 00 00
	00		 mov	 eax, DWORD PTR [rbx+172]
  00296	ff c1		 inc	 ecx
  00298	89 4b 28	 mov	 DWORD PTR [rbx+40], ecx
  0029b	83 f8 09	 cmp	 eax, 9
  0029e	75 04		 jne	 SHORT $LN104@deflate
  002a0	b2 02		 mov	 dl, 2
  002a2	eb 14		 jmp	 SHORT $LN103@deflate
$LN104@deflate:
  002a4	83 bb b0 00 00
	00 02		 cmp	 DWORD PTR [rbx+176], 2
  002ab	7d 09		 jge	 SHORT $LN102@deflate
  002ad	83 f8 02	 cmp	 eax, 2
  002b0	7c 04		 jl	 SHORT $LN102@deflate
  002b2	32 d2		 xor	 dl, dl
  002b4	eb 02		 jmp	 SHORT $LN103@deflate
$LN102@deflate:
  002b6	b2 04		 mov	 dl, 4
$LN103@deflate:
  002b8	48 8b 43 10	 mov	 rax, QWORD PTR [rbx+16]
  002bc	88 14 01	 mov	 BYTE PTR [rcx+rax], dl
  002bf	ff 43 28	 inc	 DWORD PTR [rbx+40]
  002c2	8b 4b 28	 mov	 ecx, DWORD PTR [rbx+40]

; 905  :                      (s->strategy >= Z_HUFFMAN_ONLY || s->level < 2 ?
; 906  :                       4 : 0));
; 907  :             put_byte(s, OS_CODE);

  002c5	48 8b 43 10	 mov	 rax, QWORD PTR [rbx+16]
  002c9	c6 04 01 0a	 mov	 BYTE PTR [rcx+rax], 10

; 908  :             s->status = BUSY_STATE;
; 909  : 
; 910  :             /* Compression must start with an empty pending buffer */
; 911  :             flush_pending(strm);

  002cd	48 8b cf	 mov	 rcx, rdi
  002d0	ff 43 28	 inc	 DWORD PTR [rbx+40]
  002d3	c7 43 08 71 00
	00 00		 mov	 DWORD PTR [rbx+8], 113	; 00000071H
  002da	e8 00 00 00 00	 call	 flush_pending

; 912  :             if (s->pending != 0) {

  002df	39 73 28	 cmp	 DWORD PTR [rbx+40], esi
  002e2	0f 85 3a 06 00
	00		 jne	 $LN152@deflate
  002e8	e9 57 01 00 00	 jmp	 $LN56@deflate
$LN55@deflate:

; 913  :                 s->last_flush = -1;
; 914  :                 return Z_OK;
; 915  :             }
; 916  :         }
; 917  :         else {
; 918  :             put_byte(s, (s->gzhead->text ? 1 : 0) +

  002ed	49 8b 40 30	 mov	 rax, QWORD PTR [r8+48]
  002f1	48 f7 d8	 neg	 rax
  002f4	41 8b 40 3c	 mov	 eax, DWORD PTR [r8+60]
  002f8	1a d2		 sbb	 dl, dl
  002fa	80 e2 10	 and	 dl, 16
  002fd	f7 d8		 neg	 eax
  002ff	49 8b 40 20	 mov	 rax, QWORD PTR [r8+32]
  00303	1a c9		 sbb	 cl, cl
  00305	80 e1 02	 and	 cl, 2
  00308	02 d1		 add	 dl, cl
  0030a	48 f7 d8	 neg	 rax
  0030d	49 8b 40 10	 mov	 rax, QWORD PTR [r8+16]
  00311	1a c9		 sbb	 cl, cl
  00313	80 e1 08	 and	 cl, 8
  00316	02 d1		 add	 dl, cl
  00318	48 f7 d8	 neg	 rax
  0031b	1a c9		 sbb	 cl, cl
  0031d	80 e1 04	 and	 cl, 4
  00320	02 d1		 add	 dl, cl
  00322	41 39 30	 cmp	 DWORD PTR [r8], esi
  00325	0f 95 c0	 setne	 al
  00328	02 d0		 add	 dl, al
  0032a	48 8b 43 10	 mov	 rax, QWORD PTR [rbx+16]
  0032e	41 88 14 01	 mov	 BYTE PTR [r9+rax], dl
  00332	8b 43 28	 mov	 eax, DWORD PTR [rbx+40]

; 919  :                      (s->gzhead->hcrc ? 2 : 0) +
; 920  :                      (s->gzhead->extra == Z_NULL ? 0 : 4) +
; 921  :                      (s->gzhead->name == Z_NULL ? 0 : 8) +
; 922  :                      (s->gzhead->comment == Z_NULL ? 0 : 16)
; 923  :                      );
; 924  :             put_byte(s, (Byte)(s->gzhead->time & 0xff));

  00335	48 8b 53 30	 mov	 rdx, QWORD PTR [rbx+48]
  00339	ff c0		 inc	 eax
  0033b	48 8b 4b 10	 mov	 rcx, QWORD PTR [rbx+16]
  0033f	89 43 28	 mov	 DWORD PTR [rbx+40], eax
  00342	44 8b c0	 mov	 r8d, eax
  00345	0f b6 42 04	 movzx	 eax, BYTE PTR [rdx+4]
  00349	41 88 04 08	 mov	 BYTE PTR [r8+rcx], al
  0034d	8b 43 28	 mov	 eax, DWORD PTR [rbx+40]

; 925  :             put_byte(s, (Byte)((s->gzhead->time >> 8) & 0xff));

  00350	48 8b 53 30	 mov	 rdx, QWORD PTR [rbx+48]
  00354	ff c0		 inc	 eax
  00356	48 8b 4b 10	 mov	 rcx, QWORD PTR [rbx+16]
  0035a	89 43 28	 mov	 DWORD PTR [rbx+40], eax
  0035d	44 8b c0	 mov	 r8d, eax
  00360	0f b6 42 05	 movzx	 eax, BYTE PTR [rdx+5]
  00364	41 88 04 08	 mov	 BYTE PTR [r8+rcx], al
  00368	8b 43 28	 mov	 eax, DWORD PTR [rbx+40]

; 926  :             put_byte(s, (Byte)((s->gzhead->time >> 16) & 0xff));

  0036b	48 8b 53 30	 mov	 rdx, QWORD PTR [rbx+48]
  0036f	ff c0		 inc	 eax
  00371	48 8b 4b 10	 mov	 rcx, QWORD PTR [rbx+16]
  00375	89 43 28	 mov	 DWORD PTR [rbx+40], eax
  00378	44 8b c0	 mov	 r8d, eax
  0037b	0f b6 42 06	 movzx	 eax, BYTE PTR [rdx+6]
  0037f	41 88 04 08	 mov	 BYTE PTR [r8+rcx], al
  00383	8b 43 28	 mov	 eax, DWORD PTR [rbx+40]

; 927  :             put_byte(s, (Byte)((s->gzhead->time >> 24) & 0xff));

  00386	48 8b 53 30	 mov	 rdx, QWORD PTR [rbx+48]
  0038a	ff c0		 inc	 eax
  0038c	48 8b 4b 10	 mov	 rcx, QWORD PTR [rbx+16]
  00390	89 43 28	 mov	 DWORD PTR [rbx+40], eax
  00393	44 8b c0	 mov	 r8d, eax
  00396	0f b6 42 07	 movzx	 eax, BYTE PTR [rdx+7]
  0039a	41 88 04 08	 mov	 BYTE PTR [r8+rcx], al
  0039e	8b 4b 28	 mov	 ecx, DWORD PTR [rbx+40]

; 928  :             put_byte(s, s->level == 9 ? 2 :

  003a1	8b 83 ac 00 00
	00		 mov	 eax, DWORD PTR [rbx+172]
  003a7	ff c1		 inc	 ecx
  003a9	89 4b 28	 mov	 DWORD PTR [rbx+40], ecx
  003ac	83 f8 09	 cmp	 eax, 9
  003af	75 04		 jne	 SHORT $LN108@deflate
  003b1	b2 02		 mov	 dl, 2
  003b3	eb 14		 jmp	 SHORT $LN107@deflate
$LN108@deflate:
  003b5	83 bb b0 00 00
	00 02		 cmp	 DWORD PTR [rbx+176], 2
  003bc	7d 09		 jge	 SHORT $LN106@deflate
  003be	83 f8 02	 cmp	 eax, 2
  003c1	7c 04		 jl	 SHORT $LN106@deflate
  003c3	32 d2		 xor	 dl, dl
  003c5	eb 02		 jmp	 SHORT $LN107@deflate
$LN106@deflate:
  003c7	b2 04		 mov	 dl, 4
$LN107@deflate:
  003c9	48 8b 43 10	 mov	 rax, QWORD PTR [rbx+16]
  003cd	88 14 01	 mov	 BYTE PTR [rcx+rax], dl
  003d0	ff 43 28	 inc	 DWORD PTR [rbx+40]

; 929  :                      (s->strategy >= Z_HUFFMAN_ONLY || s->level < 2 ?
; 930  :                       4 : 0));
; 931  :             put_byte(s, s->gzhead->os & 0xff);

  003d3	48 8b 43 30	 mov	 rax, QWORD PTR [rbx+48]
  003d7	8b 53 28	 mov	 edx, DWORD PTR [rbx+40]
  003da	48 8b 4b 10	 mov	 rcx, QWORD PTR [rbx+16]
  003de	0f b6 40 0c	 movzx	 eax, BYTE PTR [rax+12]
  003e2	88 04 0a	 mov	 BYTE PTR [rdx+rcx], al
  003e5	8b 4b 28	 mov	 ecx, DWORD PTR [rbx+40]

; 932  :             if (s->gzhead->extra != Z_NULL) {

  003e8	48 8b 43 30	 mov	 rax, QWORD PTR [rbx+48]
  003ec	ff c1		 inc	 ecx
  003ee	89 4b 28	 mov	 DWORD PTR [rbx+40], ecx
  003f1	48 39 70 10	 cmp	 QWORD PTR [rax+16], rsi
  003f5	74 28		 je	 SHORT $LN58@deflate

; 933  :                 put_byte(s, s->gzhead->extra_len & 0xff);

  003f7	0f b6 40 18	 movzx	 eax, BYTE PTR [rax+24]
  003fb	8b d1		 mov	 edx, ecx
  003fd	48 8b 4b 10	 mov	 rcx, QWORD PTR [rbx+16]
  00401	88 04 0a	 mov	 BYTE PTR [rdx+rcx], al
  00404	ff 43 28	 inc	 DWORD PTR [rbx+40]

; 934  :                 put_byte(s, (s->gzhead->extra_len >> 8) & 0xff);

  00407	48 8b 43 30	 mov	 rax, QWORD PTR [rbx+48]
  0040b	8b 53 28	 mov	 edx, DWORD PTR [rbx+40]
  0040e	48 8b 4b 10	 mov	 rcx, QWORD PTR [rbx+16]
  00412	0f b6 40 19	 movzx	 eax, BYTE PTR [rax+25]
  00416	88 04 0a	 mov	 BYTE PTR [rdx+rcx], al
  00419	ff 43 28	 inc	 DWORD PTR [rbx+40]
  0041c	8b 4b 28	 mov	 ecx, DWORD PTR [rbx+40]
$LN58@deflate:

; 935  :             }
; 936  :             if (s->gzhead->hcrc)

  0041f	48 8b 43 30	 mov	 rax, QWORD PTR [rbx+48]
  00423	39 70 3c	 cmp	 DWORD PTR [rax+60], esi
  00426	74 12		 je	 SHORT $LN59@deflate

; 937  :                 strm->adler = crc32(strm->adler, s->pending_buf,

  00428	48 8b 53 10	 mov	 rdx, QWORD PTR [rbx+16]
  0042c	44 8b c1	 mov	 r8d, ecx
  0042f	8b 4f 4c	 mov	 ecx, DWORD PTR [rdi+76]
  00432	e8 00 00 00 00	 call	 crc32
  00437	89 47 4c	 mov	 DWORD PTR [rdi+76], eax
$LN59@deflate:

; 938  :                                     s->pending);
; 939  :             s->gzindex = 0;

  0043a	89 73 38	 mov	 DWORD PTR [rbx+56], esi

; 940  :             s->status = EXTRA_STATE;

  0043d	c7 43 08 45 00
	00 00		 mov	 DWORD PTR [rbx+8], 69	; 00000045H
$LN56@deflate:

; 941  :         }
; 942  :     }
; 943  :     if (s->status == EXTRA_STATE) {

  00444	8b 4b 08	 mov	 ecx, DWORD PTR [rbx+8]
  00447	4c 8d 73 30	 lea	 r14, QWORD PTR [rbx+48]
  0044b	83 f9 45	 cmp	 ecx, 69			; 00000045H
  0044e	0f 85 e8 00 00
	00		 jne	 $LN142@deflate

; 944  :         if (s->gzhead->extra != Z_NULL) {

  00454	49 8b 06	 mov	 rax, QWORD PTR [r14]
  00457	48 39 70 10	 cmp	 QWORD PTR [rax+16], rsi
  0045b	0f 84 d2 00 00
	00		 je	 $LN143@deflate

; 945  :             ulg beg = s->pending;   /* start of bytes to update crc */
; 946  :             uInt left = (s->gzhead->extra_len & 0xffff) - s->gzindex;

  00461	44 0f b7 60 18	 movzx	 r12d, WORD PTR [rax+24]
  00466	44 2b 63 38	 sub	 r12d, DWORD PTR [rbx+56]
  0046a	44 8b 7b 28	 mov	 r15d, DWORD PTR [rbx+40]

; 947  :             while (s->pending + left > s->pending_buf_size) {

  0046e	8b 6b 18	 mov	 ebp, DWORD PTR [rbx+24]
  00471	45 8b cf	 mov	 r9d, r15d
  00474	43 8d 04 27	 lea	 eax, DWORD PTR [r15+r12]
  00478	3b c5		 cmp	 eax, ebp
  0047a	76 6e		 jbe	 SHORT $LN141@deflate
  0047c	41 8b cf	 mov	 ecx, r15d
  0047f	90		 npad	 1
$LL2@deflate:

; 948  :                 uInt copy = s->pending_buf_size - s->pending;
; 949  :                 zmemcpy(s->pending_buf + s->pending,

  00480	49 8b 06	 mov	 rax, QWORD PTR [r14]
  00483	2b e9		 sub	 ebp, ecx
  00485	8b 53 38	 mov	 edx, DWORD PTR [rbx+56]
  00488	48 03 4b 10	 add	 rcx, QWORD PTR [rbx+16]
  0048c	44 8b c5	 mov	 r8d, ebp
  0048f	48 03 50 10	 add	 rdx, QWORD PTR [rax+16]
  00493	e8 00 00 00 00	 call	 memcpy

; 950  :                         s->gzhead->extra + s->gzindex, copy);
; 951  :                 s->pending = s->pending_buf_size;
; 952  :                 HCRC_UPDATE(beg);

  00498	49 8b 06	 mov	 rax, QWORD PTR [r14]
  0049b	44 8b 43 18	 mov	 r8d, DWORD PTR [rbx+24]
  0049f	44 89 43 28	 mov	 DWORD PTR [rbx+40], r8d
  004a3	39 70 3c	 cmp	 DWORD PTR [rax+60], esi
  004a6	74 1a		 je	 SHORT $LN4@deflate
  004a8	45 3b c7	 cmp	 r8d, r15d
  004ab	76 15		 jbe	 SHORT $LN4@deflate
  004ad	8b 4f 4c	 mov	 ecx, DWORD PTR [rdi+76]
  004b0	45 2b c7	 sub	 r8d, r15d
  004b3	41 8b d7	 mov	 edx, r15d
  004b6	48 03 53 10	 add	 rdx, QWORD PTR [rbx+16]
  004ba	e8 00 00 00 00	 call	 crc32
  004bf	89 47 4c	 mov	 DWORD PTR [rdi+76], eax
$LN4@deflate:

; 953  :                 s->gzindex += copy;

  004c2	01 6b 38	 add	 DWORD PTR [rbx+56], ebp

; 954  :                 flush_pending(strm);

  004c5	48 8b cf	 mov	 rcx, rdi
  004c8	e8 00 00 00 00	 call	 flush_pending

; 955  :                 if (s->pending != 0) {

  004cd	44 8b 4b 28	 mov	 r9d, DWORD PTR [rbx+40]
  004d1	45 85 c9	 test	 r9d, r9d
  004d4	0f 85 48 04 00
	00		 jne	 $LN152@deflate

; 956  :                     s->last_flush = -1;
; 957  :                     return Z_OK;
; 958  :                 }
; 959  :                 beg = 0;
; 960  :                 left -= copy;

  004da	44 2b e5	 sub	 r12d, ebp
  004dd	8b ce		 mov	 ecx, esi
  004df	8b 6b 18	 mov	 ebp, DWORD PTR [rbx+24]
  004e2	44 8b fe	 mov	 r15d, esi
  004e5	44 3b e5	 cmp	 r12d, ebp
  004e8	77 96		 ja	 SHORT $LL2@deflate
$LN141@deflate:

; 961  :             }
; 962  :             zmemcpy(s->pending_buf + s->pending,

  004ea	49 8b 06	 mov	 rax, QWORD PTR [r14]
  004ed	8b 53 38	 mov	 edx, DWORD PTR [rbx+56]
  004f0	41 8b c9	 mov	 ecx, r9d
  004f3	48 03 4b 10	 add	 rcx, QWORD PTR [rbx+16]
  004f7	48 03 50 10	 add	 rdx, QWORD PTR [rax+16]
  004fb	45 8b c4	 mov	 r8d, r12d
  004fe	e8 00 00 00 00	 call	 memcpy

; 963  :                     s->gzhead->extra + s->gzindex, left);
; 964  :             s->pending += left;

  00503	44 8b 43 28	 mov	 r8d, DWORD PTR [rbx+40]

; 965  :             HCRC_UPDATE(beg);

  00507	49 8b 06	 mov	 rax, QWORD PTR [r14]
  0050a	45 03 c4	 add	 r8d, r12d
  0050d	44 89 43 28	 mov	 DWORD PTR [rbx+40], r8d
  00511	39 70 3c	 cmp	 DWORD PTR [rax+60], esi
  00514	74 1a		 je	 SHORT $LN7@deflate
  00516	45 3b c7	 cmp	 r8d, r15d
  00519	76 15		 jbe	 SHORT $LN7@deflate
  0051b	8b 4f 4c	 mov	 ecx, DWORD PTR [rdi+76]
  0051e	45 2b c7	 sub	 r8d, r15d
  00521	41 8b d7	 mov	 edx, r15d
  00524	48 03 53 10	 add	 rdx, QWORD PTR [rbx+16]
  00528	e8 00 00 00 00	 call	 crc32
  0052d	89 47 4c	 mov	 DWORD PTR [rdi+76], eax
$LN7@deflate:

; 966  :             s->gzindex = 0;

  00530	89 73 38	 mov	 DWORD PTR [rbx+56], esi
$LN143@deflate:

; 967  :         }
; 968  :         s->status = NAME_STATE;

  00533	c7 43 08 49 00
	00 00		 mov	 DWORD PTR [rbx+8], 73	; 00000049H
  0053a	eb 09		 jmp	 SHORT $LN150@deflate
$LN142@deflate:

; 969  :     }
; 970  :     if (s->status == NAME_STATE) {

  0053c	83 f9 49	 cmp	 ecx, 73			; 00000049H
  0053f	0f 85 bc 00 00
	00		 jne	 $LN145@deflate
$LN150@deflate:

; 971  :         if (s->gzhead->name != Z_NULL) {

  00545	49 8b 06	 mov	 rax, QWORD PTR [r14]
  00548	48 39 70 20	 cmp	 QWORD PTR [rax+32], rsi
  0054c	0f 84 9f 00 00
	00		 je	 $LN144@deflate

; 972  :             ulg beg = s->pending;   /* start of bytes to update crc */

  00552	44 8b 4b 28	 mov	 r9d, DWORD PTR [rbx+40]
  00556	45 8b c1	 mov	 r8d, r9d
  00559	0f 1f 80 00 00
	00 00		 npad	 7
$LL12@deflate:

; 973  :             int val;
; 974  :             do {
; 975  :                 if (s->pending == s->pending_buf_size) {

  00560	44 3b 43 18	 cmp	 r8d, DWORD PTR [rbx+24]
  00564	75 39		 jne	 SHORT $LN67@deflate

; 976  :                     HCRC_UPDATE(beg);

  00566	49 8b 06	 mov	 rax, QWORD PTR [r14]
  00569	39 70 3c	 cmp	 DWORD PTR [rax+60], esi
  0056c	74 1a		 je	 SHORT $LN13@deflate
  0056e	45 3b c1	 cmp	 r8d, r9d
  00571	76 15		 jbe	 SHORT $LN13@deflate
  00573	8b 4f 4c	 mov	 ecx, DWORD PTR [rdi+76]
  00576	45 2b c1	 sub	 r8d, r9d
  00579	41 8b d1	 mov	 edx, r9d
  0057c	48 03 53 10	 add	 rdx, QWORD PTR [rbx+16]
  00580	e8 00 00 00 00	 call	 crc32
  00585	89 47 4c	 mov	 DWORD PTR [rdi+76], eax
$LN13@deflate:

; 977  :                     flush_pending(strm);

  00588	48 8b cf	 mov	 rcx, rdi
  0058b	e8 00 00 00 00	 call	 flush_pending

; 978  :                     if (s->pending != 0) {

  00590	39 73 28	 cmp	 DWORD PTR [rbx+40], esi
  00593	0f 85 89 03 00
	00		 jne	 $LN152@deflate

; 979  :                         s->last_flush = -1;
; 980  :                         return Z_OK;
; 981  :                     }
; 982  :                     beg = 0;

  00599	44 8b ce	 mov	 r9d, esi
  0059c	44 8b c6	 mov	 r8d, esi
$LN67@deflate:

; 983  :                 }
; 984  :                 val = s->gzhead->name[s->gzindex++];

  0059f	8b 4b 38	 mov	 ecx, DWORD PTR [rbx+56]
  005a2	49 8b 06	 mov	 rax, QWORD PTR [r14]
  005a5	48 8b 40 20	 mov	 rax, QWORD PTR [rax+32]
  005a9	0f b6 14 01	 movzx	 edx, BYTE PTR [rcx+rax]
  005ad	8d 41 01	 lea	 eax, DWORD PTR [rcx+1]

; 985  :                 put_byte(s, val);

  005b0	41 8b c8	 mov	 ecx, r8d
  005b3	89 43 38	 mov	 DWORD PTR [rbx+56], eax
  005b6	48 8b 43 10	 mov	 rax, QWORD PTR [rbx+16]
  005ba	88 14 01	 mov	 BYTE PTR [rcx+rax], dl
  005bd	44 8b 43 28	 mov	 r8d, DWORD PTR [rbx+40]
  005c1	41 ff c0	 inc	 r8d
  005c4	44 89 43 28	 mov	 DWORD PTR [rbx+40], r8d

; 986  :             } while (val != 0);

  005c8	84 d2		 test	 dl, dl
  005ca	75 94		 jne	 SHORT $LL12@deflate

; 987  :             HCRC_UPDATE(beg);

  005cc	49 8b 06	 mov	 rax, QWORD PTR [r14]
  005cf	39 70 3c	 cmp	 DWORD PTR [rax+60], esi
  005d2	74 1a		 je	 SHORT $LN16@deflate
  005d4	45 3b c1	 cmp	 r8d, r9d
  005d7	76 15		 jbe	 SHORT $LN16@deflate
  005d9	8b 4f 4c	 mov	 ecx, DWORD PTR [rdi+76]
  005dc	45 2b c1	 sub	 r8d, r9d
  005df	41 8b d1	 mov	 edx, r9d
  005e2	48 03 53 10	 add	 rdx, QWORD PTR [rbx+16]
  005e6	e8 00 00 00 00	 call	 crc32
  005eb	89 47 4c	 mov	 DWORD PTR [rdi+76], eax
$LN16@deflate:

; 988  :             s->gzindex = 0;

  005ee	89 73 38	 mov	 DWORD PTR [rbx+56], esi
$LN144@deflate:

; 989  :         }
; 990  :         s->status = COMMENT_STATE;

  005f1	48 8b eb	 mov	 rbp, rbx
  005f4	c7 43 08 5b 00
	00 00		 mov	 DWORD PTR [rbx+8], 91	; 0000005bH
  005fb	48 83 c5 18	 add	 rbp, 24
  005ff	eb 0d		 jmp	 SHORT $LN149@deflate
$LN145@deflate:
  00601	48 8d 6b 18	 lea	 rbp, QWORD PTR [rbx+24]

; 991  :     }
; 992  :     if (s->status == COMMENT_STATE) {

  00605	83 f9 5b	 cmp	 ecx, 91			; 0000005bH
  00608	0f 85 ab 00 00
	00		 jne	 $LN146@deflate
$LN149@deflate:

; 993  :         if (s->gzhead->comment != Z_NULL) {

  0060e	49 8b 06	 mov	 rax, QWORD PTR [r14]
  00611	48 39 70 30	 cmp	 QWORD PTR [rax+48], rsi
  00615	0f 84 95 00 00
	00		 je	 $LN26@deflate

; 994  :             ulg beg = s->pending;   /* start of bytes to update crc */

  0061b	44 8b 4b 28	 mov	 r9d, DWORD PTR [rbx+40]
  0061f	45 8b c1	 mov	 r8d, r9d
$LL21@deflate:

; 995  :             int val;
; 996  :             do {
; 997  :                 if (s->pending == s->pending_buf_size) {

  00622	44 3b 45 00	 cmp	 r8d, DWORD PTR [rbp]
  00626	75 39		 jne	 SHORT $LN73@deflate

; 998  :                     HCRC_UPDATE(beg);

  00628	49 8b 06	 mov	 rax, QWORD PTR [r14]
  0062b	39 70 3c	 cmp	 DWORD PTR [rax+60], esi
  0062e	74 1a		 je	 SHORT $LN22@deflate
  00630	45 3b c1	 cmp	 r8d, r9d
  00633	76 15		 jbe	 SHORT $LN22@deflate
  00635	8b 4f 4c	 mov	 ecx, DWORD PTR [rdi+76]
  00638	45 2b c1	 sub	 r8d, r9d
  0063b	41 8b d1	 mov	 edx, r9d
  0063e	48 03 53 10	 add	 rdx, QWORD PTR [rbx+16]
  00642	e8 00 00 00 00	 call	 crc32
  00647	89 47 4c	 mov	 DWORD PTR [rdi+76], eax
$LN22@deflate:

; 999  :                     flush_pending(strm);

  0064a	48 8b cf	 mov	 rcx, rdi
  0064d	e8 00 00 00 00	 call	 flush_pending

; 1000 :                     if (s->pending != 0) {

  00652	39 73 28	 cmp	 DWORD PTR [rbx+40], esi
  00655	0f 85 c7 02 00
	00		 jne	 $LN152@deflate

; 1001 :                         s->last_flush = -1;
; 1002 :                         return Z_OK;
; 1003 :                     }
; 1004 :                     beg = 0;

  0065b	44 8b ce	 mov	 r9d, esi
  0065e	44 8b c6	 mov	 r8d, esi
$LN73@deflate:

; 1005 :                 }
; 1006 :                 val = s->gzhead->comment[s->gzindex++];

  00661	8b 4b 38	 mov	 ecx, DWORD PTR [rbx+56]
  00664	49 8b 06	 mov	 rax, QWORD PTR [r14]
  00667	48 8b 40 30	 mov	 rax, QWORD PTR [rax+48]
  0066b	0f b6 14 01	 movzx	 edx, BYTE PTR [rcx+rax]
  0066f	8d 41 01	 lea	 eax, DWORD PTR [rcx+1]

; 1007 :                 put_byte(s, val);

  00672	41 8b c8	 mov	 ecx, r8d
  00675	89 43 38	 mov	 DWORD PTR [rbx+56], eax
  00678	48 8b 43 10	 mov	 rax, QWORD PTR [rbx+16]
  0067c	88 14 01	 mov	 BYTE PTR [rcx+rax], dl
  0067f	44 8b 43 28	 mov	 r8d, DWORD PTR [rbx+40]
  00683	41 ff c0	 inc	 r8d
  00686	44 89 43 28	 mov	 DWORD PTR [rbx+40], r8d

; 1008 :             } while (val != 0);

  0068a	84 d2		 test	 dl, dl
  0068c	75 94		 jne	 SHORT $LL21@deflate

; 1009 :             HCRC_UPDATE(beg);

  0068e	49 8b 06	 mov	 rax, QWORD PTR [r14]
  00691	39 70 3c	 cmp	 DWORD PTR [rax+60], esi
  00694	74 1a		 je	 SHORT $LN26@deflate
  00696	45 3b c1	 cmp	 r8d, r9d
  00699	76 15		 jbe	 SHORT $LN26@deflate
  0069b	8b 4f 4c	 mov	 ecx, DWORD PTR [rdi+76]
  0069e	45 2b c1	 sub	 r8d, r9d
  006a1	41 8b d1	 mov	 edx, r9d
  006a4	48 03 53 10	 add	 rdx, QWORD PTR [rbx+16]
  006a8	e8 00 00 00 00	 call	 crc32
  006ad	89 47 4c	 mov	 DWORD PTR [rdi+76], eax
$LN26@deflate:

; 1010 :         }
; 1011 :         s->status = HCRC_STATE;

  006b0	c7 43 08 67 00
	00 00		 mov	 DWORD PTR [rbx+8], 103	; 00000067H
  006b7	eb 05		 jmp	 SHORT $LN148@deflate
$LN146@deflate:

; 1012 :     }
; 1013 :     if (s->status == HCRC_STATE) {

  006b9	83 f9 67	 cmp	 ecx, 103		; 00000067H
  006bc	75 6e		 jne	 SHORT $LN134@deflate
$LN148@deflate:

; 1014 :         if (s->gzhead->hcrc) {

  006be	49 8b 06	 mov	 rax, QWORD PTR [r14]
  006c1	39 70 3c	 cmp	 DWORD PTR [rax+60], esi
  006c4	74 4e		 je	 SHORT $LN78@deflate

; 1015 :             if (s->pending + 2 > s->pending_buf_size) {

  006c6	8b 4b 28	 mov	 ecx, DWORD PTR [rbx+40]
  006c9	8d 41 02	 lea	 eax, DWORD PTR [rcx+2]
  006cc	3b 45 00	 cmp	 eax, DWORD PTR [rbp]
  006cf	76 13		 jbe	 SHORT $LN133@deflate

; 1016 :                 flush_pending(strm);

  006d1	48 8b cf	 mov	 rcx, rdi
  006d4	e8 00 00 00 00	 call	 flush_pending

; 1017 :                 if (s->pending != 0) {

  006d9	8b 4b 28	 mov	 ecx, DWORD PTR [rbx+40]
  006dc	85 c9		 test	 ecx, ecx
  006de	0f 85 3e 02 00
	00		 jne	 $LN152@deflate
$LN133@deflate:

; 1018 :                     s->last_flush = -1;
; 1019 :                     return Z_OK;
; 1020 :                 }
; 1021 :             }
; 1022 :             put_byte(s, (Byte)(strm->adler & 0xff));

  006e4	0f b6 47 4c	 movzx	 eax, BYTE PTR [rdi+76]

; 1023 :             put_byte(s, (Byte)((strm->adler >> 8) & 0xff));
; 1024 :             strm->adler = crc32(0L, Z_NULL, 0);

  006e8	45 33 c0	 xor	 r8d, r8d
  006eb	8b d1		 mov	 edx, ecx
  006ed	48 8b 4b 10	 mov	 rcx, QWORD PTR [rbx+16]
  006f1	88 04 0a	 mov	 BYTE PTR [rdx+rcx], al
  006f4	ff 43 28	 inc	 DWORD PTR [rbx+40]
  006f7	8b 53 28	 mov	 edx, DWORD PTR [rbx+40]
  006fa	48 8b 4b 10	 mov	 rcx, QWORD PTR [rbx+16]
  006fe	0f b6 47 4d	 movzx	 eax, BYTE PTR [rdi+77]
  00702	88 04 0a	 mov	 BYTE PTR [rdx+rcx], al
  00705	33 d2		 xor	 edx, edx
  00707	ff 43 28	 inc	 DWORD PTR [rbx+40]
  0070a	33 c9		 xor	 ecx, ecx
  0070c	e8 00 00 00 00	 call	 crc32
  00711	89 47 4c	 mov	 DWORD PTR [rdi+76], eax
$LN78@deflate:

; 1025 :         }
; 1026 :         s->status = BUSY_STATE;
; 1027 : 
; 1028 :         /* Compression must start with an empty pending buffer */
; 1029 :         flush_pending(strm);

  00714	48 8b cf	 mov	 rcx, rdi
  00717	c7 43 08 71 00
	00 00		 mov	 DWORD PTR [rbx+8], 113	; 00000071H
  0071e	e8 00 00 00 00	 call	 flush_pending

; 1030 :         if (s->pending != 0) {

  00723	39 73 28	 cmp	 DWORD PTR [rbx+40], esi
  00726	0f 85 f6 01 00
	00		 jne	 $LN152@deflate
$LN134@deflate:

; 1031 :             s->last_flush = -1;
; 1032 :             return Z_OK;
; 1033 :         }
; 1034 :     }
; 1035 : #endif
; 1036 : 
; 1037 :     /* Start a new block or continue the current one.
; 1038 :      */
; 1039 :     if (strm->avail_in != 0 || s->lookahead != 0 ||

  0072c	39 77 08	 cmp	 DWORD PTR [rdi+8], esi
  0072f	75 1e		 jne	 SHORT $LN83@deflate
  00731	39 b3 9c 00 00
	00		 cmp	 DWORD PTR [rbx+156], esi
  00737	75 16		 jne	 SHORT $LN83@deflate
  00739	45 85 ed	 test	 r13d, r13d
  0073c	0f 84 e7 01 00
	00		 je	 $LN88@deflate
  00742	81 7b 08 9a 02
	00 00		 cmp	 DWORD PTR [rbx+8], 666	; 0000029aH
  00749	0f 84 ea 00 00
	00		 je	 $LN95@deflate
$LN83@deflate:

; 1040 :         (flush != Z_NO_FLUSH && s->status != FINISH_STATE)) {
; 1041 :         block_state bstate;
; 1042 : 
; 1043 :         bstate = s->level == 0 ? deflate_stored(s, flush) :

  0074f	48 63 8b ac 00
	00 00		 movsxd	 rcx, DWORD PTR [rbx+172]
  00756	41 8b d5	 mov	 edx, r13d
  00759	85 c9		 test	 ecx, ecx
  0075b	75 0a		 jne	 SHORT $LN114@deflate
  0075d	48 8b cb	 mov	 rcx, rbx
  00760	e8 00 00 00 00	 call	 deflate_stored
  00765	eb 38		 jmp	 SHORT $LN169@deflate
$LN114@deflate:
  00767	8b 83 b0 00 00
	00		 mov	 eax, DWORD PTR [rbx+176]
  0076d	83 f8 02	 cmp	 eax, 2
  00770	75 0a		 jne	 SHORT $LN112@deflate
  00772	48 8b cb	 mov	 rcx, rbx
  00775	e8 00 00 00 00	 call	 deflate_huff
  0077a	eb 23		 jmp	 SHORT $LN169@deflate
$LN112@deflate:
  0077c	83 f8 03	 cmp	 eax, 3
  0077f	75 0a		 jne	 SHORT $LN110@deflate
  00781	48 8b cb	 mov	 rcx, rbx
  00784	e8 00 00 00 00	 call	 deflate_rle
  00789	eb 14		 jmp	 SHORT $LN169@deflate
$LN110@deflate:
  0078b	48 8b c1	 mov	 rax, rcx
  0078e	4c 8d 05 08 00
	00 00		 lea	 r8, OFFSET FLAT:configuration_table+8
  00795	48 03 c0	 add	 rax, rax
  00798	48 8b cb	 mov	 rcx, rbx
  0079b	41 ff 14 c0	 call	 QWORD PTR [r8+rax*8]
$LN169@deflate:

; 1044 :                  s->strategy == Z_HUFFMAN_ONLY ? deflate_huff(s, flush) :
; 1045 :                  s->strategy == Z_RLE ? deflate_rle(s, flush) :
; 1046 :                  (*(configuration_table[s->level].func))(s, flush);
; 1047 : 
; 1048 :         if (bstate == finish_started || bstate == finish_done) {

  0079f	8b c8		 mov	 ecx, eax
  007a1	8d 40 fe	 lea	 eax, DWORD PTR [rax-2]
  007a4	83 f8 01	 cmp	 eax, 1
  007a7	77 07		 ja	 SHORT $LN84@deflate

; 1049 :             s->status = FINISH_STATE;

  007a9	c7 43 08 9a 02
	00 00		 mov	 DWORD PTR [rbx+8], 666	; 0000029aH
$LN84@deflate:

; 1050 :         }
; 1051 :         if (bstate == need_more || bstate == finish_started) {

  007b0	f7 c1 fd ff ff
	ff		 test	 ecx, -3			; fffffffdH
  007b6	0f 84 61 01 00
	00		 je	 $LN87@deflate

; 1056 :             /* If flush != Z_NO_FLUSH && avail_out == 0, the next call
; 1057 :              * of deflate should use the same flush parameter to make sure
; 1058 :              * that the flush is complete. So we don't have to output an
; 1059 :              * empty block here, this will be done at next call. This also
; 1060 :              * ensures that for a very small output buffer, we emit at most
; 1061 :              * one empty block.
; 1062 :              */
; 1063 :         }
; 1064 :         if (bstate == block_done) {

  007bc	83 f9 01	 cmp	 ecx, 1
  007bf	75 78		 jne	 SHORT $LN95@deflate

; 1065 :             if (flush == Z_PARTIAL_FLUSH) {

  007c1	44 3b e9	 cmp	 r13d, ecx
  007c4	75 0a		 jne	 SHORT $LN90@deflate

; 1066 :                 _tr_align(s);

  007c6	48 8b cb	 mov	 rcx, rbx
  007c9	e8 00 00 00 00	 call	 _tr_align
  007ce	eb 58		 jmp	 SHORT $LN94@deflate
$LN90@deflate:

; 1067 :             } else if (flush != Z_BLOCK) { /* FULL_FLUSH or SYNC_FLUSH */

  007d0	41 83 fd 05	 cmp	 r13d, 5
  007d4	74 52		 je	 SHORT $LN94@deflate

; 1068 :                 _tr_stored_block(s, (char*)0, 0L, 0);

  007d6	45 33 c9	 xor	 r9d, r9d
  007d9	45 33 c0	 xor	 r8d, r8d
  007dc	33 d2		 xor	 edx, edx
  007de	48 8b cb	 mov	 rcx, rbx
  007e1	e8 00 00 00 00	 call	 _tr_stored_block

; 1069 :                 /* For a full flush, this empty block will be recognized
; 1070 :                  * as a special marker by inflate_sync().
; 1071 :                  */
; 1072 :                 if (flush == Z_FULL_FLUSH) {

  007e6	41 83 fd 03	 cmp	 r13d, 3
  007ea	75 3c		 jne	 SHORT $LN94@deflate

; 1073 :                     CLEAR_HASH(s);             /* forget history */

  007ec	8b 4b 74	 mov	 ecx, DWORD PTR [rbx+116]
  007ef	33 d2		 xor	 edx, edx
  007f1	48 8b 43 68	 mov	 rax, QWORD PTR [rbx+104]
  007f5	ff c9		 dec	 ecx
  007f7	66 89 34 48	 mov	 WORD PTR [rax+rcx*2], si
  007fb	44 8b 43 74	 mov	 r8d, DWORD PTR [rbx+116]
  007ff	48 8b 4b 68	 mov	 rcx, QWORD PTR [rbx+104]
  00803	41 ff c8	 dec	 r8d
  00806	4d 03 c0	 add	 r8, r8
  00809	e8 00 00 00 00	 call	 memset

; 1074 :                     if (s->lookahead == 0) {

  0080e	39 b3 9c 00 00
	00		 cmp	 DWORD PTR [rbx+156], esi
  00814	75 12		 jne	 SHORT $LN94@deflate

; 1075 :                         s->strstart = 0;

  00816	89 b3 94 00 00
	00		 mov	 DWORD PTR [rbx+148], esi

; 1076 :                         s->block_start = 0L;

  0081c	89 b3 84 00 00
	00		 mov	 DWORD PTR [rbx+132], esi

; 1077 :                         s->insert = 0;

  00822	89 b3 08 17 00
	00		 mov	 DWORD PTR [rbx+5896], esi
$LN94@deflate:

; 1078 :                     }
; 1079 :                 }
; 1080 :             }
; 1081 :             flush_pending(strm);

  00828	48 8b cf	 mov	 rcx, rdi
  0082b	e8 00 00 00 00	 call	 flush_pending

; 1082 :             if (strm->avail_out == 0) {

  00830	39 77 18	 cmp	 DWORD PTR [rdi+24], esi
  00833	0f 84 e9 00 00
	00		 je	 $LN152@deflate
$LN95@deflate:

; 1083 :               s->last_flush = -1; /* avoid BUF_ERROR at next call, see above */
; 1084 :               return Z_OK;
; 1085 :             }
; 1086 :         }
; 1087 :     }
; 1088 : 
; 1089 :     if (flush != Z_FINISH) return Z_OK;

  00839	41 83 fd 04	 cmp	 r13d, 4
  0083d	0f 85 e6 00 00
	00		 jne	 $LN88@deflate

; 1090 :     if (s->wrap <= 0) return Z_STREAM_END;

  00843	8b 43 2c	 mov	 eax, DWORD PTR [rbx+44]
  00846	85 c0		 test	 eax, eax
  00848	7f 09		 jg	 SHORT $LN97@deflate
  0084a	41 8d 45 fd	 lea	 eax, QWORD PTR [r13-3]
  0084e	e9 a1 f8 ff ff	 jmp	 $LN168@deflate
$LN97@deflate:

; 1091 : 
; 1092 :     /* Write the trailer */
; 1093 : #ifdef GZIP
; 1094 :     if (s->wrap == 2) {

  00853	83 f8 02	 cmp	 eax, 2
  00856	0f 85 8a 00 00
	00		 jne	 $LN98@deflate

; 1095 :         put_byte(s, (Byte)(strm->adler & 0xff));

  0085c	8b 53 28	 mov	 edx, DWORD PTR [rbx+40]
  0085f	0f b6 47 4c	 movzx	 eax, BYTE PTR [rdi+76]
  00863	48 8b 4b 10	 mov	 rcx, QWORD PTR [rbx+16]
  00867	88 04 0a	 mov	 BYTE PTR [rdx+rcx], al
  0086a	ff 43 28	 inc	 DWORD PTR [rbx+40]
  0086d	8b 53 28	 mov	 edx, DWORD PTR [rbx+40]

; 1096 :         put_byte(s, (Byte)((strm->adler >> 8) & 0xff));

  00870	0f b6 47 4d	 movzx	 eax, BYTE PTR [rdi+77]
  00874	48 8b 4b 10	 mov	 rcx, QWORD PTR [rbx+16]
  00878	88 04 0a	 mov	 BYTE PTR [rdx+rcx], al
  0087b	ff 43 28	 inc	 DWORD PTR [rbx+40]
  0087e	8b 53 28	 mov	 edx, DWORD PTR [rbx+40]

; 1097 :         put_byte(s, (Byte)((strm->adler >> 16) & 0xff));

  00881	0f b6 47 4e	 movzx	 eax, BYTE PTR [rdi+78]
  00885	48 8b 4b 10	 mov	 rcx, QWORD PTR [rbx+16]
  00889	88 04 0a	 mov	 BYTE PTR [rdx+rcx], al
  0088c	ff 43 28	 inc	 DWORD PTR [rbx+40]
  0088f	8b 53 28	 mov	 edx, DWORD PTR [rbx+40]

; 1098 :         put_byte(s, (Byte)((strm->adler >> 24) & 0xff));

  00892	0f b6 47 4f	 movzx	 eax, BYTE PTR [rdi+79]
  00896	48 8b 4b 10	 mov	 rcx, QWORD PTR [rbx+16]
  0089a	88 04 0a	 mov	 BYTE PTR [rdx+rcx], al
  0089d	ff 43 28	 inc	 DWORD PTR [rbx+40]
  008a0	8b 53 28	 mov	 edx, DWORD PTR [rbx+40]

; 1099 :         put_byte(s, (Byte)(strm->total_in & 0xff));

  008a3	0f b6 47 0c	 movzx	 eax, BYTE PTR [rdi+12]
  008a7	48 8b 4b 10	 mov	 rcx, QWORD PTR [rbx+16]
  008ab	88 04 0a	 mov	 BYTE PTR [rdx+rcx], al
  008ae	ff 43 28	 inc	 DWORD PTR [rbx+40]
  008b1	8b 53 28	 mov	 edx, DWORD PTR [rbx+40]

; 1100 :         put_byte(s, (Byte)((strm->total_in >> 8) & 0xff));

  008b4	0f b6 47 0d	 movzx	 eax, BYTE PTR [rdi+13]
  008b8	48 8b 4b 10	 mov	 rcx, QWORD PTR [rbx+16]
  008bc	88 04 0a	 mov	 BYTE PTR [rdx+rcx], al
  008bf	ff 43 28	 inc	 DWORD PTR [rbx+40]
  008c2	8b 53 28	 mov	 edx, DWORD PTR [rbx+40]

; 1101 :         put_byte(s, (Byte)((strm->total_in >> 16) & 0xff));

  008c5	0f b6 47 0e	 movzx	 eax, BYTE PTR [rdi+14]
  008c9	48 8b 4b 10	 mov	 rcx, QWORD PTR [rbx+16]
  008cd	88 04 0a	 mov	 BYTE PTR [rdx+rcx], al
  008d0	ff 43 28	 inc	 DWORD PTR [rbx+40]
  008d3	8b 53 28	 mov	 edx, DWORD PTR [rbx+40]

; 1102 :         put_byte(s, (Byte)((strm->total_in >> 24) & 0xff));

  008d6	0f b6 47 0f	 movzx	 eax, BYTE PTR [rdi+15]
  008da	48 8b 4b 10	 mov	 rcx, QWORD PTR [rbx+16]
  008de	88 04 0a	 mov	 BYTE PTR [rdx+rcx], al
  008e1	ff 43 28	 inc	 DWORD PTR [rbx+40]

; 1103 :     }

  008e4	eb 15		 jmp	 SHORT $LN99@deflate
$LN98@deflate:

; 1104 :     else
; 1105 : #endif
; 1106 :     {
; 1107 :         putShortMSB(s, (uInt)(strm->adler >> 16));

  008e6	0f b7 57 4e	 movzx	 edx, WORD PTR [rdi+78]
  008ea	48 8b cb	 mov	 rcx, rbx
  008ed	e8 00 00 00 00	 call	 putShortMSB

; 1108 :         putShortMSB(s, (uInt)(strm->adler & 0xffff));

  008f2	0f b7 57 4c	 movzx	 edx, WORD PTR [rdi+76]
  008f6	e8 00 00 00 00	 call	 putShortMSB
$LN99@deflate:

; 1109 :     }
; 1110 :     flush_pending(strm);

  008fb	48 8b cf	 mov	 rcx, rdi
  008fe	e8 00 00 00 00	 call	 flush_pending

; 1111 :     /* If avail_out is zero, the application will call deflate again
; 1112 :      * to flush the rest.
; 1113 :      */
; 1114 :     if (s->wrap > 0) s->wrap = -s->wrap; /* write the trailer only once! */

  00903	8b 43 2c	 mov	 eax, DWORD PTR [rbx+44]
  00906	85 c0		 test	 eax, eax
  00908	7e 05		 jle	 SHORT $LN100@deflate
  0090a	f7 d8		 neg	 eax
  0090c	89 43 2c	 mov	 DWORD PTR [rbx+44], eax
$LN100@deflate:

; 1115 :     return s->pending != 0 ? Z_OK : Z_STREAM_END;

  0090f	39 73 28	 cmp	 DWORD PTR [rbx+40], esi
  00912	40 0f 94 c6	 sete	 sil
  00916	8b c6		 mov	 eax, esi
  00918	e9 d7 f7 ff ff	 jmp	 $LN168@deflate
$LN87@deflate:

; 1052 :             if (strm->avail_out == 0) {

  0091d	39 77 18	 cmp	 DWORD PTR [rdi+24], esi
  00920	75 07		 jne	 SHORT $LN88@deflate
$LN152@deflate:

; 1053 :                 s->last_flush = -1; /* avoid BUF_ERROR next call, see above */

  00922	c7 43 40 ff ff
	ff ff		 mov	 DWORD PTR [rbx+64], -1
$LN88@deflate:

; 1054 :             }
; 1055 :             return Z_OK;

  00929	33 c0		 xor	 eax, eax
  0092b	e9 c4 f7 ff ff	 jmp	 $LN168@deflate
$LN34@deflate:

; 818  :         (s->status == FINISH_STATE && flush != Z_FINISH)) {
; 819  :         ERR_RETURN(strm, Z_STREAM_ERROR);

  00930	48 8b 05 20 00
	00 00		 mov	 rax, QWORD PTR z_errmsg+32
  00937	48 8b 5c 24 50	 mov	 rbx, QWORD PTR [rsp+80]
  0093c	48 89 47 20	 mov	 QWORD PTR [rdi+32], rax
  00940	b8 fe ff ff ff	 mov	 eax, -2

; 1116 : }

  00945	48 83 c4 38	 add	 rsp, 56			; 00000038H
  00949	41 5d		 pop	 r13
  0094b	5f		 pop	 rdi
  0094c	c3		 ret	 0
$LN32@deflate:

; 812  :         return Z_STREAM_ERROR;

  0094d	b8 fe ff ff ff	 mov	 eax, -2

; 1116 : }

  00952	48 83 c4 38	 add	 rsp, 56			; 00000038H
  00956	41 5d		 pop	 r13
  00958	5f		 pop	 rdi
  00959	c3		 ret	 0
deflate	ENDP
_TEXT	ENDS
; Function compile flags: /Ogtpy
; File G:\1_Projects\BRDF\DisneyBRDF\zlib-1.2.12\deflate.c
;	COMDAT deflateEnd
_TEXT	SEGMENT
strm$ = 48
deflateEnd PROC						; COMDAT

; 1121 : {

$LN10:
  00000	40 53		 push	 rbx
  00002	48 83 ec 20	 sub	 rsp, 32			; 00000020H
  00006	48 8b d9	 mov	 rbx, rcx

; 1122 :     int status;
; 1123 : 
; 1124 :     if (deflateStateCheck(strm)) return Z_STREAM_ERROR;

  00009	e8 00 00 00 00	 call	 deflateStateCheck
  0000e	85 c0		 test	 eax, eax
  00010	74 0b		 je	 SHORT $LN2@deflateEnd
  00012	b8 fe ff ff ff	 mov	 eax, -2

; 1138 : }

  00017	48 83 c4 20	 add	 rsp, 32			; 00000020H
  0001b	5b		 pop	 rbx
  0001c	c3		 ret	 0
$LN2@deflateEnd:

; 1125 : 
; 1126 :     status = strm->state->status;

  0001d	48 8b 43 28	 mov	 rax, QWORD PTR [rbx+40]
  00021	48 89 6c 24 30	 mov	 QWORD PTR [rsp+48], rbp
  00026	48 89 74 24 38	 mov	 QWORD PTR [rsp+56], rsi
  0002b	48 89 7c 24 40	 mov	 QWORD PTR [rsp+64], rdi

; 1127 : 
; 1128 :     /* Deallocate in reverse order of allocations: */
; 1129 :     TRY_FREE(strm, strm->state->pending_buf);

  00030	48 8b 50 10	 mov	 rdx, QWORD PTR [rax+16]
  00034	8b 68 08	 mov	 ebp, DWORD PTR [rax+8]
  00037	48 85 d2	 test	 rdx, rdx
  0003a	74 07		 je	 SHORT $LN8@deflateEnd
  0003c	48 8b 4b 40	 mov	 rcx, QWORD PTR [rbx+64]
  00040	ff 53 38	 call	 QWORD PTR [rbx+56]
$LN8@deflateEnd:

; 1130 :     TRY_FREE(strm, strm->state->head);

  00043	48 8b 43 28	 mov	 rax, QWORD PTR [rbx+40]
  00047	48 8b 50 68	 mov	 rdx, QWORD PTR [rax+104]
  0004b	48 85 d2	 test	 rdx, rdx
  0004e	74 07		 je	 SHORT $LN4@deflateEnd
  00050	48 8b 4b 40	 mov	 rcx, QWORD PTR [rbx+64]
  00054	ff 53 38	 call	 QWORD PTR [rbx+56]
$LN4@deflateEnd:

; 1131 :     TRY_FREE(strm, strm->state->prev);

  00057	48 8b 43 28	 mov	 rax, QWORD PTR [rbx+40]
  0005b	48 8b 50 60	 mov	 rdx, QWORD PTR [rax+96]
  0005f	48 85 d2	 test	 rdx, rdx
  00062	74 07		 je	 SHORT $LN5@deflateEnd
  00064	48 8b 4b 40	 mov	 rcx, QWORD PTR [rbx+64]
  00068	ff 53 38	 call	 QWORD PTR [rbx+56]
$LN5@deflateEnd:

; 1132 :     TRY_FREE(strm, strm->state->window);

  0006b	48 8b 43 28	 mov	 rax, QWORD PTR [rbx+40]
  0006f	48 8b 50 50	 mov	 rdx, QWORD PTR [rax+80]
  00073	48 85 d2	 test	 rdx, rdx
  00076	74 07		 je	 SHORT $LN6@deflateEnd
  00078	48 8b 4b 40	 mov	 rcx, QWORD PTR [rbx+64]
  0007c	ff 53 38	 call	 QWORD PTR [rbx+56]
$LN6@deflateEnd:

; 1133 : 
; 1134 :     ZFREE(strm, strm->state);

  0007f	48 8b 53 28	 mov	 rdx, QWORD PTR [rbx+40]
  00083	48 8b 4b 40	 mov	 rcx, QWORD PTR [rbx+64]
  00087	ff 53 38	 call	 QWORD PTR [rbx+56]

; 1135 :     strm->state = Z_NULL;
; 1136 : 
; 1137 :     return status == BUSY_STATE ? Z_DATA_ERROR : Z_OK;

  0008a	48 8b 7c 24 40	 mov	 rdi, QWORD PTR [rsp+64]
  0008f	33 c0		 xor	 eax, eax
  00091	48 8b 74 24 38	 mov	 rsi, QWORD PTR [rsp+56]
  00096	83 fd 71	 cmp	 ebp, 113		; 00000071H
  00099	48 8b 6c 24 30	 mov	 rbp, QWORD PTR [rsp+48]
  0009e	b9 fd ff ff ff	 mov	 ecx, -3
  000a3	48 89 43 28	 mov	 QWORD PTR [rbx+40], rax
  000a7	0f 44 c1	 cmove	 eax, ecx

; 1138 : }

  000aa	48 83 c4 20	 add	 rsp, 32			; 00000020H
  000ae	5b		 pop	 rbx
  000af	c3		 ret	 0
deflateEnd ENDP
_TEXT	ENDS
; Function compile flags: /Ogtpy
; File G:\1_Projects\BRDF\DisneyBRDF\zlib-1.2.12\deflate.c
;	COMDAT deflateInit_
_TEXT	SEGMENT
strm$ = 80
level$ = 88
version$ = 96
stream_size$ = 104
deflateInit_ PROC					; COMDAT

; 236  : {

$LN4:
  00000	48 83 ec 48	 sub	 rsp, 72			; 00000048H

; 237  :     return deflateInit2_(strm, level, Z_DEFLATED, MAX_WBITS, DEF_MEM_LEVEL,

  00004	44 89 4c 24 38	 mov	 DWORD PTR [rsp+56], r9d
  00009	41 b9 0f 00 00
	00		 mov	 r9d, 15
  0000f	4c 89 44 24 30	 mov	 QWORD PTR [rsp+48], r8
  00014	c7 44 24 28 00
	00 00 00	 mov	 DWORD PTR [rsp+40], 0
  0001c	c7 44 24 20 08
	00 00 00	 mov	 DWORD PTR [rsp+32], 8
  00024	45 8d 41 f9	 lea	 r8d, QWORD PTR [r9-7]
  00028	e8 00 00 00 00	 call	 deflateInit2_

; 238  :                          Z_DEFAULT_STRATEGY, version, stream_size);
; 239  :     /* To do: ignore strm->next_in if we use it as window */
; 240  : }

  0002d	48 83 c4 48	 add	 rsp, 72			; 00000048H
  00031	c3		 ret	 0
deflateInit_ ENDP
_TEXT	ENDS
; Function compile flags: /Ogtpy
; File G:\1_Projects\BRDF\DisneyBRDF\zlib-1.2.12\deflate.c
;	COMDAT slide_hash
_TEXT	SEGMENT
s$ = 8
slide_hash PROC						; COMDAT

; 206  : {

  00000	48 89 5c 24 08	 mov	 QWORD PTR [rsp+8], rbx

; 207  :     unsigned n, m;
; 208  :     Posf *p;
; 209  :     uInt wsize = s->w_size;
; 210  : 
; 211  :     n = s->hash_size;

  00005	44 8b 51 74	 mov	 r10d, DWORD PTR [rcx+116]

; 212  :     p = &s->head[n];

  00009	33 db		 xor	 ebx, ebx
  0000b	48 8b 41 68	 mov	 rax, QWORD PTR [rcx+104]
  0000f	44 8b 41 44	 mov	 r8d, DWORD PTR [rcx+68]
  00013	4e 8d 0c 50	 lea	 r9, QWORD PTR [rax+r10*2]
  00017	66 0f 1f 84 00
	00 00 00 00	 npad	 9
$LL4@slide_hash:

; 213  :     do {
; 214  :         m = *--p;

  00020	41 0f b7 51 fe	 movzx	 edx, WORD PTR [r9-2]
  00025	4d 8d 49 fe	 lea	 r9, QWORD PTR [r9-2]

; 215  :         *p = (Pos)(m >= wsize ? m - wsize : NIL);

  00029	0f b7 c2	 movzx	 eax, dx
  0002c	66 41 2b c0	 sub	 ax, r8w
  00030	41 3b d0	 cmp	 edx, r8d
  00033	66 0f 42 c3	 cmovb	 ax, bx
  00037	66 41 89 01	 mov	 WORD PTR [r9], ax

; 216  :     } while (--n);

  0003b	41 83 c2 ff	 add	 r10d, -1		; ffffffffH
  0003f	75 df		 jne	 SHORT $LL4@slide_hash

; 217  :     n = wsize;
; 218  : #ifndef FASTEST
; 219  :     p = &s->prev[n];

  00041	48 8b 41 60	 mov	 rax, QWORD PTR [rcx+96]
  00045	45 8b c8	 mov	 r9d, r8d
  00048	4a 8d 14 40	 lea	 rdx, QWORD PTR [rax+r8*2]
  0004c	0f 1f 40 00	 npad	 4
$LL7@slide_hash:

; 220  :     do {
; 221  :         m = *--p;

  00050	0f b7 4a fe	 movzx	 ecx, WORD PTR [rdx-2]
  00054	48 8d 52 fe	 lea	 rdx, QWORD PTR [rdx-2]

; 222  :         *p = (Pos)(m >= wsize ? m - wsize : NIL);

  00058	0f b7 c1	 movzx	 eax, cx
  0005b	66 41 2b c0	 sub	 ax, r8w
  0005f	41 3b c8	 cmp	 ecx, r8d
  00062	66 0f 42 c3	 cmovb	 ax, bx
  00066	66 89 02	 mov	 WORD PTR [rdx], ax

; 223  :         /* If n is not on any hash chain, prev[n] is garbage but
; 224  :          * its value will never be used.
; 225  :          */
; 226  :     } while (--n);

  00069	41 83 c1 ff	 add	 r9d, -1			; ffffffffH
  0006d	75 e1		 jne	 SHORT $LL7@slide_hash

; 227  : #endif
; 228  : }

  0006f	48 8b 5c 24 08	 mov	 rbx, QWORD PTR [rsp+8]
  00074	c3		 ret	 0
slide_hash ENDP
_TEXT	ENDS
; Function compile flags: /Ogtpy
; File G:\1_Projects\BRDF\DisneyBRDF\zlib-1.2.12\deflate.c
;	COMDAT deflateInit2_
_TEXT	SEGMENT
strm$ = 80
level$ = 88
method$ = 96
windowBits$ = 104
memLevel$ = 112
strategy$ = 120
version$ = 128
stream_size$ = 136
deflateInit2_ PROC					; COMDAT

; 253  : {

$LN24:
  00000	48 89 5c 24 18	 mov	 QWORD PTR [rsp+24], rbx
  00005	56		 push	 rsi
  00006	41 54		 push	 r12
  00008	41 55		 push	 r13
  0000a	41 56		 push	 r14
  0000c	41 57		 push	 r15
  0000e	48 83 ec 20	 sub	 rsp, 32			; 00000020H

; 254  :     deflate_state *s;
; 255  :     int wrap = 1;
; 256  :     static const char my_version[] = ZLIB_VERSION;
; 257  : 
; 258  :     if (version == Z_NULL || version[0] != my_version[0] ||

  00012	48 8b 84 24 80
	00 00 00	 mov	 rax, QWORD PTR version$[rsp]
  0001a	41 bf 01 00 00
	00		 mov	 r15d, 1
  00020	44 8b 64 24 78	 mov	 r12d, DWORD PTR strategy$[rsp]
  00025	41 8b f1	 mov	 esi, r9d
  00028	45 8b e8	 mov	 r13d, r8d
  0002b	48 8b d9	 mov	 rbx, rcx
  0002e	45 8b f7	 mov	 r14d, r15d
  00031	48 85 c0	 test	 rax, rax
  00034	0f 84 2e 02 00
	00		 je	 $LN3@deflateIni
  0003a	80 38 31	 cmp	 BYTE PTR [rax], 49	; 00000031H
  0003d	0f 85 25 02 00
	00		 jne	 $LN3@deflateIni
  00043	83 bc 24 88 00
	00 00 58	 cmp	 DWORD PTR stream_size$[rsp], 88 ; 00000058H
  0004b	0f 85 17 02 00
	00		 jne	 $LN3@deflateIni

; 259  :         stream_size != sizeof(z_stream)) {
; 260  :         return Z_VERSION_ERROR;
; 261  :     }
; 262  :     if (strm == Z_NULL) return Z_STREAM_ERROR;

  00051	48 89 6c 24 50	 mov	 QWORD PTR [rsp+80], rbp
  00056	48 85 c9	 test	 rcx, rcx
  00059	0f 84 02 02 00
	00		 je	 $LN12@deflateIni

; 263  : 
; 264  :     strm->msg = Z_NULL;

  0005f	33 c9		 xor	 ecx, ecx
  00061	48 89 4b 20	 mov	 QWORD PTR [rbx+32], rcx

; 265  :     if (strm->zalloc == (alloc_func)0) {

  00065	48 39 4b 30	 cmp	 QWORD PTR [rbx+48], rcx
  00069	75 0f		 jne	 SHORT $LN5@deflateIni

; 266  : #ifdef Z_SOLO
; 267  :         return Z_STREAM_ERROR;
; 268  : #else
; 269  :         strm->zalloc = zcalloc;

  0006b	48 8d 05 00 00
	00 00		 lea	 rax, OFFSET FLAT:zcalloc

; 270  :         strm->opaque = (voidpf)0;

  00072	48 89 4b 40	 mov	 QWORD PTR [rbx+64], rcx
  00076	48 89 43 30	 mov	 QWORD PTR [rbx+48], rax
$LN5@deflateIni:

; 271  : #endif
; 272  :     }
; 273  :     if (strm->zfree == (free_func)0)

  0007a	48 39 4b 38	 cmp	 QWORD PTR [rbx+56], rcx
  0007e	75 0b		 jne	 SHORT $LN6@deflateIni

; 274  : #ifdef Z_SOLO
; 275  :         return Z_STREAM_ERROR;
; 276  : #else
; 277  :         strm->zfree = zcfree;

  00080	48 8d 05 00 00
	00 00		 lea	 rax, OFFSET FLAT:zcfree
  00087	48 89 43 38	 mov	 QWORD PTR [rbx+56], rax
$LN6@deflateIni:

; 278  : #endif
; 279  : 
; 280  : #ifdef FASTEST
; 281  :     if (level != 0) level = 1;
; 282  : #else
; 283  :     if (level == Z_DEFAULT_COMPRESSION) level = 6;
; 284  : #endif
; 285  : 
; 286  :     if (windowBits < 0) { /* suppress zlib wrapper */

  0008b	83 fa ff	 cmp	 edx, -1
  0008e	bd 06 00 00 00	 mov	 ebp, 6
  00093	0f 45 ea	 cmovne	 ebp, edx
  00096	85 f6		 test	 esi, esi
  00098	79 07		 jns	 SHORT $LN8@deflateIni

; 287  :         wrap = 0;

  0009a	44 8b f1	 mov	 r14d, ecx

; 288  :         windowBits = -windowBits;

  0009d	f7 de		 neg	 esi

; 289  :     }

  0009f	eb 0e		 jmp	 SHORT $LN10@deflateIni
$LN8@deflateIni:

; 290  : #ifdef GZIP
; 291  :     else if (windowBits > 15) {

  000a1	83 fe 0f	 cmp	 esi, 15
  000a4	7e 09		 jle	 SHORT $LN10@deflateIni

; 292  :         wrap = 2;       /* write gzip wrapper instead */

  000a6	41 be 02 00 00
	00		 mov	 r14d, 2

; 293  :         windowBits -= 16;

  000ac	83 ee 10	 sub	 esi, 16
$LN10@deflateIni:

; 294  :     }
; 295  : #endif
; 296  :     if (memLevel < 1 || memLevel > MAX_MEM_LEVEL || method != Z_DEFLATED ||
; 297  :         windowBits < 8 || windowBits > 15 || level < 0 || level > 9 ||
; 298  :         strategy < 0 || strategy > Z_FIXED || (windowBits == 8 && wrap != 1)) {

  000af	8b 44 24 70	 mov	 eax, DWORD PTR memLevel$[rsp]
  000b3	ff c8		 dec	 eax
  000b5	83 f8 08	 cmp	 eax, 8
  000b8	0f 87 a3 01 00
	00		 ja	 $LN12@deflateIni
  000be	41 83 fd 08	 cmp	 r13d, 8
  000c2	0f 85 99 01 00
	00		 jne	 $LN12@deflateIni
  000c8	8d 46 f8	 lea	 eax, DWORD PTR [rsi-8]
  000cb	83 f8 07	 cmp	 eax, 7
  000ce	0f 87 8d 01 00
	00		 ja	 $LN12@deflateIni
  000d4	83 fd 09	 cmp	 ebp, 9
  000d7	0f 87 84 01 00
	00		 ja	 $LN12@deflateIni
  000dd	41 83 fc 04	 cmp	 r12d, 4
  000e1	0f 87 7a 01 00
	00		 ja	 $LN12@deflateIni
  000e7	41 3b f5	 cmp	 esi, r13d
  000ea	75 0d		 jne	 SHORT $LN13@deflateIni
  000ec	45 3b f7	 cmp	 r14d, r15d
  000ef	0f 85 6c 01 00
	00		 jne	 $LN12@deflateIni

; 300  :     }
; 301  :     if (windowBits == 8) windowBits = 9;  /* until 256-byte window bug fixed */

  000f5	41 8d 75 01	 lea	 esi, QWORD PTR [r13+1]
$LN13@deflateIni:

; 302  :     s = (deflate_state *) ZALLOC(strm, 1, sizeof(deflate_state));

  000f9	48 8b 4b 40	 mov	 rcx, QWORD PTR [rbx+64]
  000fd	41 b8 18 17 00
	00		 mov	 r8d, 5912		; 00001718H
  00103	41 8b d7	 mov	 edx, r15d
  00106	48 89 7c 24 58	 mov	 QWORD PTR [rsp+88], rdi
  0010b	ff 53 30	 call	 QWORD PTR [rbx+48]
  0010e	48 8b f8	 mov	 rdi, rax

; 303  :     if (s == Z_NULL) return Z_MEM_ERROR;

  00111	48 85 c0	 test	 rax, rax
  00114	0f 84 40 01 00
	00		 je	 $LN22@deflateIni

; 304  :     strm->state = (struct internal_state FAR *)s;

  0011a	48 89 43 28	 mov	 QWORD PTR [rbx+40], rax

; 305  :     s->strm = strm;
; 306  :     s->status = INIT_STATE;     /* to pass state test in deflateReset() */
; 307  : 
; 308  :     s->wrap = wrap;
; 309  :     s->gzhead = Z_NULL;
; 310  :     s->w_bits = (uInt)windowBits;
; 311  :     s->w_size = 1 << s->w_bits;

  0011e	8b ce		 mov	 ecx, esi
  00120	44 89 70 2c	 mov	 DWORD PTR [rax+44], r14d
  00124	45 8b cf	 mov	 r9d, r15d
  00127	89 70 48	 mov	 DWORD PTR [rax+72], esi
  0012a	45 33 f6	 xor	 r14d, r14d

; 312  :     s->w_mask = s->w_size - 1;
; 313  : 
; 314  :     s->hash_bits = (uInt)memLevel + 7;

  0012d	8b 74 24 70	 mov	 esi, DWORD PTR memLevel$[rsp]
  00131	41 d3 e1	 shl	 r9d, cl
  00134	48 89 18	 mov	 QWORD PTR [rax], rbx
  00137	c7 40 08 2a 00
	00 00		 mov	 DWORD PTR [rax+8], 42	; 0000002aH

; 315  :     s->hash_size = 1 << s->hash_bits;
; 316  :     s->hash_mask = s->hash_size - 1;
; 317  :     s->hash_shift =  ((s->hash_bits+MIN_MATCH-1)/MIN_MATCH);
; 318  : 
; 319  :     s->window = (Bytef *) ZALLOC(strm, s->w_size, 2*sizeof(Byte));

  0013e	45 8d 46 02	 lea	 r8d, QWORD PTR [r14+2]
  00142	4c 89 70 30	 mov	 QWORD PTR [rax+48], r14
  00146	8d 4e 07	 lea	 ecx, DWORD PTR [rsi+7]
  00149	44 89 48 44	 mov	 DWORD PTR [rax+68], r9d
  0014d	41 8d 41 ff	 lea	 eax, DWORD PTR [r9-1]
  00151	89 47 4c	 mov	 DWORD PTR [rdi+76], eax
  00154	41 8b c7	 mov	 eax, r15d
  00157	d3 e0		 shl	 eax, cl
  00159	89 47 74	 mov	 DWORD PTR [rdi+116], eax
  0015c	ff c8		 dec	 eax
  0015e	89 47 7c	 mov	 DWORD PTR [rdi+124], eax
  00161	b8 ab aa aa aa	 mov	 eax, -1431655765	; aaaaaaabH
  00166	89 4f 78	 mov	 DWORD PTR [rdi+120], ecx
  00169	83 c1 02	 add	 ecx, 2
  0016c	f7 e1		 mul	 ecx
  0016e	d1 ea		 shr	 edx, 1
  00170	89 97 80 00 00
	00		 mov	 DWORD PTR [rdi+128], edx
  00176	41 8b d1	 mov	 edx, r9d
  00179	48 8b 4b 40	 mov	 rcx, QWORD PTR [rbx+64]
  0017d	ff 53 30	 call	 QWORD PTR [rbx+48]

; 320  :     s->prev   = (Posf *)  ZALLOC(strm, s->w_size, sizeof(Pos));

  00180	8b 57 44	 mov	 edx, DWORD PTR [rdi+68]
  00183	45 8d 46 02	 lea	 r8d, QWORD PTR [r14+2]
  00187	48 89 47 50	 mov	 QWORD PTR [rdi+80], rax
  0018b	48 8b 4b 40	 mov	 rcx, QWORD PTR [rbx+64]
  0018f	ff 53 30	 call	 QWORD PTR [rbx+48]

; 321  :     s->head   = (Posf *)  ZALLOC(strm, s->hash_size, sizeof(Pos));

  00192	8b 57 74	 mov	 edx, DWORD PTR [rdi+116]
  00195	45 8d 46 02	 lea	 r8d, QWORD PTR [r14+2]
  00199	48 89 47 60	 mov	 QWORD PTR [rdi+96], rax
  0019d	48 8b 4b 40	 mov	 rcx, QWORD PTR [rbx+64]
  001a1	ff 53 30	 call	 QWORD PTR [rbx+48]

; 322  : 
; 323  :     s->high_water = 0;      /* nothing written to s->window yet */
; 324  : 
; 325  :     s->lit_bufsize = 1 << (memLevel + 6); /* 16K elements by default */

  001a4	8d 4e 06	 lea	 ecx, DWORD PTR [rsi+6]
  001a7	44 89 b7 14 17
	00 00		 mov	 DWORD PTR [rdi+5908], r14d
  001ae	41 d3 e7	 shl	 r15d, cl

; 326  : 
; 327  :     /* We overlay pending_buf and sym_buf. This works since the average size
; 328  :      * for length/distance pairs over any compressed block is assured to be 31
; 329  :      * bits or less.
; 330  :      *
; 331  :      * Analysis: The longest fixed codes are a length code of 8 bits plus 5
; 332  :      * extra bits, for lengths 131 to 257. The longest fixed distance codes are
; 333  :      * 5 bits plus 13 extra bits, for distances 16385 to 32768. The longest
; 334  :      * possible fixed-codes length/distance pair is then 31 bits total.
; 335  :      *
; 336  :      * sym_buf starts one-fourth of the way into pending_buf. So there are
; 337  :      * three bytes in sym_buf for every four bytes in pending_buf. Each symbol
; 338  :      * in sym_buf is three bytes -- two for the distance and one for the
; 339  :      * literal/length. As each symbol is consumed, the pointer to the next
; 340  :      * sym_buf value to read moves forward three bytes. From that symbol, up to
; 341  :      * 31 bits are written to pending_buf. The closest the written pending_buf
; 342  :      * bits gets to the next sym_buf symbol to read is just before the last
; 343  :      * code is written. At that time, 31*(n-2) bits have been written, just
; 344  :      * after 24*(n-2) bits have been consumed from sym_buf. sym_buf starts at
; 345  :      * 8*n bits into pending_buf. (Note that the symbol buffer fills when n-1
; 346  :      * symbols are written.) The closest the writing gets to what is unread is
; 347  :      * then n+14 bits. Here n is lit_bufsize, which is 16384 by default, and
; 348  :      * can range from 128 to 32768.
; 349  :      *
; 350  :      * Therefore, at a minimum, there are 142 bits of space between what is
; 351  :      * written and what is read in the overlain buffers, so the symbols cannot
; 352  :      * be overwritten by the compressed data. That space is actually 139 bits,
; 353  :      * due to the three-bit fixed-code block header.
; 354  :      *
; 355  :      * That covers the case where either Z_FIXED is specified, forcing fixed
; 356  :      * codes, or when the use of fixed codes is chosen, because that choice
; 357  :      * results in a smaller compressed block than dynamic codes. That latter
; 358  :      * condition then assures that the above analysis also covers all dynamic
; 359  :      * blocks. A dynamic-code block will only be chosen to be emitted if it has
; 360  :      * fewer bits than a fixed-code block would for the same set of symbols.
; 361  :      * Therefore its average symbol length is assured to be less than 31. So
; 362  :      * the compressed data for a dynamic block also cannot overwrite the
; 363  :      * symbols from which it is being constructed.
; 364  :      */
; 365  : 
; 366  :     s->pending_buf = (uchf *) ZALLOC(strm, s->lit_bufsize, 4);

  001b1	45 8d 46 04	 lea	 r8d, QWORD PTR [r14+4]
  001b5	44 89 bf f0 16
	00 00		 mov	 DWORD PTR [rdi+5872], r15d
  001bc	41 8b d7	 mov	 edx, r15d
  001bf	48 89 47 68	 mov	 QWORD PTR [rdi+104], rax
  001c3	48 8b 4b 40	 mov	 rcx, QWORD PTR [rbx+64]
  001c7	ff 53 30	 call	 QWORD PTR [rbx+48]

; 367  :     s->pending_buf_size = (ulg)s->lit_bufsize * 4;

  001ca	8b 97 f0 16 00
	00		 mov	 edx, DWORD PTR [rdi+5872]
  001d0	48 89 47 10	 mov	 QWORD PTR [rdi+16], rax
  001d4	8d 0c 95 00 00
	00 00		 lea	 ecx, DWORD PTR [rdx*4]
  001db	89 4f 18	 mov	 DWORD PTR [rdi+24], ecx

; 368  : 
; 369  :     if (s->window == Z_NULL || s->prev == Z_NULL || s->head == Z_NULL ||

  001de	4c 39 77 50	 cmp	 QWORD PTR [rdi+80], r14
  001e2	74 5c		 je	 SHORT $LN16@deflateIni
  001e4	4c 39 77 60	 cmp	 QWORD PTR [rdi+96], r14
  001e8	74 56		 je	 SHORT $LN16@deflateIni
  001ea	4c 39 77 68	 cmp	 QWORD PTR [rdi+104], r14
  001ee	74 50		 je	 SHORT $LN16@deflateIni
  001f0	48 85 c0	 test	 rax, rax
  001f3	74 4b		 je	 SHORT $LN16@deflateIni

; 375  :     }
; 376  :     s->sym_buf = s->pending_buf + s->lit_bufsize;

  001f5	48 03 c2	 add	 rax, rdx

; 377  :     s->sym_end = (s->lit_bufsize - 1) * 3;
; 378  :     /* We avoid equality with lit_bufsize*3 because of wraparound at 64K
; 379  :      * on 16 bit machines and because stored blocks are restricted to
; 380  :      * 64K-1 bytes.
; 381  :      */
; 382  : 
; 383  :     s->level = level;

  001f8	89 af ac 00 00
	00		 mov	 DWORD PTR [rdi+172], ebp
  001fe	ff ca		 dec	 edx
  00200	48 89 87 e8 16
	00 00		 mov	 QWORD PTR [rdi+5864], rax

; 384  :     s->strategy = strategy;
; 385  :     s->method = (Byte)method;
; 386  : 
; 387  :     return deflateReset(strm);

  00207	48 8b cb	 mov	 rcx, rbx
  0020a	44 89 a7 b0 00
	00 00		 mov	 DWORD PTR [rdi+176], r12d
  00211	44 88 6f 3c	 mov	 BYTE PTR [rdi+60], r13b
  00215	8d 04 52	 lea	 eax, DWORD PTR [rdx+rdx*2]
  00218	89 87 f8 16 00
	00		 mov	 DWORD PTR [rdi+5880], eax
  0021e	e8 00 00 00 00	 call	 deflateReset
$LN21@deflateIni:
  00223	48 8b 7c 24 58	 mov	 rdi, QWORD PTR [rsp+88]
$LN20@deflateIni:
  00228	48 8b 6c 24 50	 mov	 rbp, QWORD PTR [rsp+80]

; 388  : }

  0022d	48 8b 5c 24 60	 mov	 rbx, QWORD PTR [rsp+96]
  00232	48 83 c4 20	 add	 rsp, 32			; 00000020H
  00236	41 5f		 pop	 r15
  00238	41 5e		 pop	 r14
  0023a	41 5d		 pop	 r13
  0023c	41 5c		 pop	 r12
  0023e	5e		 pop	 rsi
  0023f	c3		 ret	 0
$LN16@deflateIni:

; 370  :         s->pending_buf == Z_NULL) {
; 371  :         s->status = FINISH_STATE;
; 372  :         strm->msg = ERR_MSG(Z_MEM_ERROR);

  00240	48 8b 05 30 00
	00 00		 mov	 rax, QWORD PTR z_errmsg+48

; 373  :         deflateEnd (strm);

  00247	48 8b cb	 mov	 rcx, rbx
  0024a	c7 47 08 9a 02
	00 00		 mov	 DWORD PTR [rdi+8], 666	; 0000029aH
  00251	48 89 43 20	 mov	 QWORD PTR [rbx+32], rax
  00255	e8 00 00 00 00	 call	 deflateEnd
$LN22@deflateIni:

; 374  :         return Z_MEM_ERROR;

  0025a	b8 fc ff ff ff	 mov	 eax, -4
  0025f	eb c2		 jmp	 SHORT $LN21@deflateIni
$LN12@deflateIni:

; 299  :         return Z_STREAM_ERROR;

  00261	b8 fe ff ff ff	 mov	 eax, -2
  00266	eb c0		 jmp	 SHORT $LN20@deflateIni
$LN3@deflateIni:

; 388  : }

  00268	48 8b 5c 24 60	 mov	 rbx, QWORD PTR [rsp+96]
  0026d	b8 fa ff ff ff	 mov	 eax, -6
  00272	48 83 c4 20	 add	 rsp, 32			; 00000020H
  00276	41 5f		 pop	 r15
  00278	41 5e		 pop	 r14
  0027a	41 5d		 pop	 r13
  0027c	41 5c		 pop	 r12
  0027e	5e		 pop	 rsi
  0027f	c3		 ret	 0
deflateInit2_ ENDP
_TEXT	ENDS
; Function compile flags: /Ogtpy
; File G:\1_Projects\BRDF\DisneyBRDF\zlib-1.2.12\deflate.c
;	COMDAT deflateStateCheck
_TEXT	SEGMENT
strm$ = 8
deflateStateCheck PROC					; COMDAT

; 396  :     deflate_state *s;
; 397  :     if (strm == Z_NULL ||
; 398  :         strm->zalloc == (alloc_func)0 || strm->zfree == (free_func)0)

  00000	48 85 c9	 test	 rcx, rcx
  00003	74 47		 je	 SHORT $LN3@deflateSta
  00005	48 83 79 30 00	 cmp	 QWORD PTR [rcx+48], 0
  0000a	74 40		 je	 SHORT $LN3@deflateSta
  0000c	48 83 79 38 00	 cmp	 QWORD PTR [rcx+56], 0
  00011	74 39		 je	 SHORT $LN3@deflateSta

; 400  :     s = strm->state;

  00013	48 8b 41 28	 mov	 rax, QWORD PTR [rcx+40]

; 401  :     if (s == Z_NULL || s->strm != strm || (s->status != INIT_STATE &&

  00017	48 85 c0	 test	 rax, rax
  0001a	74 30		 je	 SHORT $LN3@deflateSta
  0001c	48 39 08	 cmp	 QWORD PTR [rax], rcx
  0001f	75 2b		 jne	 SHORT $LN3@deflateSta
  00021	8b 48 08	 mov	 ecx, DWORD PTR [rax+8]
  00024	8d 41 d6	 lea	 eax, DWORD PTR [rcx-42]
  00027	83 f8 3d	 cmp	 eax, 61			; 0000003dH
  0002a	77 10		 ja	 SHORT $LN7@deflateSta
  0002c	48 ba 01 80 00
	88 00 00 02 20	 mov	 rdx, 2306405961448849409 ; 2002000088008001H
  00036	48 0f a3 c2	 bt	 rdx, rax
  0003a	72 0d		 jb	 SHORT $LN4@deflateSta
$LN7@deflateSta:
  0003c	83 f9 71	 cmp	 ecx, 113		; 00000071H
  0003f	74 08		 je	 SHORT $LN4@deflateSta
  00041	81 f9 9a 02 00
	00		 cmp	 ecx, 666		; 0000029aH
  00047	75 03		 jne	 SHORT $LN3@deflateSta
$LN4@deflateSta:

; 402  : #ifdef GZIP
; 403  :                                            s->status != GZIP_STATE &&
; 404  : #endif
; 405  :                                            s->status != EXTRA_STATE &&
; 406  :                                            s->status != NAME_STATE &&
; 407  :                                            s->status != COMMENT_STATE &&
; 408  :                                            s->status != HCRC_STATE &&
; 409  :                                            s->status != BUSY_STATE &&
; 410  :                                            s->status != FINISH_STATE))
; 411  :         return 1;
; 412  :     return 0;

  00049	33 c0		 xor	 eax, eax

; 413  : }

  0004b	c3		 ret	 0
$LN3@deflateSta:

; 399  :         return 1;

  0004c	b8 01 00 00 00	 mov	 eax, 1

; 413  : }

  00051	c3		 ret	 0
deflateStateCheck ENDP
_TEXT	ENDS
; Function compile flags: /Ogtpy
; File G:\1_Projects\BRDF\DisneyBRDF\zlib-1.2.12\deflate.c
;	COMDAT deflateSetDictionary
_TEXT	SEGMENT
strm$ = 80
dictionary$ = 88
dictLength$ = 96
deflateSetDictionary PROC				; COMDAT

; 420  : {

$LN32:
  00000	40 53		 push	 rbx
  00002	55		 push	 rbp
  00003	56		 push	 rsi
  00004	57		 push	 rdi
  00005	41 56		 push	 r14
  00007	48 83 ec 20	 sub	 rsp, 32			; 00000020H
  0000b	41 8b f8	 mov	 edi, r8d
  0000e	48 8b f2	 mov	 rsi, rdx
  00011	4c 8b f1	 mov	 r14, rcx

; 421  :     deflate_state *s;
; 422  :     uInt str, n;
; 423  :     int wrap;
; 424  :     unsigned avail;
; 425  :     z_const unsigned char *next;
; 426  : 
; 427  :     if (deflateStateCheck(strm) || dictionary == Z_NULL)

  00014	e8 00 00 00 00	 call	 deflateStateCheck
  00019	85 c0		 test	 eax, eax
  0001b	0f 85 b9 01 00
	00		 jne	 $LN11@deflateSet
  00021	48 85 f6	 test	 rsi, rsi
  00024	0f 84 b0 01 00
	00		 je	 $LN11@deflateSet

; 429  :     s = strm->state;

  0002a	49 8b 5e 28	 mov	 rbx, QWORD PTR [r14+40]

; 430  :     wrap = s->wrap;

  0002e	8b 6b 2c	 mov	 ebp, DWORD PTR [rbx+44]

; 431  :     if (wrap == 2 || (wrap == 1 && s->status != INIT_STATE) || s->lookahead)

  00031	83 fd 02	 cmp	 ebp, 2
  00034	0f 84 a0 01 00
	00		 je	 $LN11@deflateSet
  0003a	83 fd 01	 cmp	 ebp, 1
  0003d	75 0a		 jne	 SHORT $LN14@deflateSet
  0003f	83 7b 08 2a	 cmp	 DWORD PTR [rbx+8], 42	; 0000002aH
  00043	0f 85 91 01 00
	00		 jne	 $LN11@deflateSet
$LN14@deflateSet:
  00049	83 bb 9c 00 00
	00 00		 cmp	 DWORD PTR [rbx+156], 0
  00050	0f 85 84 01 00
	00		 jne	 $LN11@deflateSet

; 432  :         return Z_STREAM_ERROR;
; 433  : 
; 434  :     /* when using zlib wrappers, compute Adler-32 for provided dictionary */
; 435  :     if (wrap == 1)

  00056	4c 89 64 24 50	 mov	 QWORD PTR [rsp+80], r12
  0005b	4c 89 6c 24 58	 mov	 QWORD PTR [rsp+88], r13
  00060	4c 89 7c 24 60	 mov	 QWORD PTR [rsp+96], r15
  00065	83 fd 01	 cmp	 ebp, 1
  00068	75 10		 jne	 SHORT $LN15@deflateSet

; 436  :         strm->adler = adler32(strm->adler, dictionary, dictLength);

  0006a	41 8b 4e 4c	 mov	 ecx, DWORD PTR [r14+76]
  0006e	48 8b d6	 mov	 rdx, rsi
  00071	e8 00 00 00 00	 call	 adler32
  00076	41 89 46 4c	 mov	 DWORD PTR [r14+76], eax
$LN15@deflateSet:

; 437  :     s->wrap = 0;                    /* avoid computing Adler-32 in read_buf */

  0007a	45 33 ed	 xor	 r13d, r13d
  0007d	44 89 6b 2c	 mov	 DWORD PTR [rbx+44], r13d

; 438  : 
; 439  :     /* if dictionary would fill window, just replace the history */
; 440  :     if (dictLength >= s->w_size) {

  00081	3b 7b 44	 cmp	 edi, DWORD PTR [rbx+68]
  00084	72 47		 jb	 SHORT $LN30@deflateSet

; 441  :         if (wrap == 0) {            /* already empty otherwise */

  00086	85 ed		 test	 ebp, ebp
  00088	75 38		 jne	 SHORT $LN29@deflateSet

; 442  :             CLEAR_HASH(s);

  0008a	8b 4b 74	 mov	 ecx, DWORD PTR [rbx+116]
  0008d	33 d2		 xor	 edx, edx
  0008f	48 8b 43 68	 mov	 rax, QWORD PTR [rbx+104]
  00093	ff c9		 dec	 ecx
  00095	66 44 89 2c 48	 mov	 WORD PTR [rax+rcx*2], r13w
  0009a	44 8b 43 74	 mov	 r8d, DWORD PTR [rbx+116]
  0009e	48 8b 4b 68	 mov	 rcx, QWORD PTR [rbx+104]
  000a2	41 ff c8	 dec	 r8d
  000a5	4d 03 c0	 add	 r8, r8
  000a8	e8 00 00 00 00	 call	 memset

; 443  :             s->strstart = 0;

  000ad	44 89 ab 94 00
	00 00		 mov	 DWORD PTR [rbx+148], r13d

; 444  :             s->block_start = 0L;

  000b4	44 89 ab 84 00
	00 00		 mov	 DWORD PTR [rbx+132], r13d

; 445  :             s->insert = 0;

  000bb	44 89 ab 08 17
	00 00		 mov	 DWORD PTR [rbx+5896], r13d
$LN29@deflateSet:

; 446  :         }
; 447  :         dictionary += dictLength - s->w_size;  /* use the tail */

  000c2	2b 7b 44	 sub	 edi, DWORD PTR [rbx+68]
  000c5	8b c7		 mov	 eax, edi

; 448  :         dictLength = s->w_size;

  000c7	8b 7b 44	 mov	 edi, DWORD PTR [rbx+68]
  000ca	48 03 f0	 add	 rsi, rax
$LN30@deflateSet:

; 449  :     }
; 450  : 
; 451  :     /* insert dictionary into window and hash */
; 452  :     avail = strm->avail_in;

  000cd	45 8b 7e 08	 mov	 r15d, DWORD PTR [r14+8]

; 453  :     next = strm->next_in;
; 454  :     strm->avail_in = dictLength;
; 455  :     strm->next_in = (z_const Bytef *)dictionary;
; 456  :     fill_window(s);

  000d1	48 8b cb	 mov	 rcx, rbx
  000d4	4d 8b 26	 mov	 r12, QWORD PTR [r14]
  000d7	41 89 7e 08	 mov	 DWORD PTR [r14+8], edi
  000db	49 89 36	 mov	 QWORD PTR [r14], rsi
  000de	e8 00 00 00 00	 call	 fill_window

; 457  :     while (s->lookahead >= MIN_MATCH) {

  000e3	8b 8b 9c 00 00
	00		 mov	 ecx, DWORD PTR [rbx+156]
  000e9	83 f9 03	 cmp	 ecx, 3
  000ec	0f 82 88 00 00
	00		 jb	 $LN6@deflateSet
$LL5@deflateSet:

; 458  :         str = s->strstart;

  000f2	44 8b 93 94 00
	00 00		 mov	 r10d, DWORD PTR [rbx+148]

; 459  :         n = s->lookahead - (MIN_MATCH-1);

  000f9	8d 79 fe	 lea	 edi, DWORD PTR [rcx-2]
  000fc	45 8d 5a 02	 lea	 r11d, DWORD PTR [r10+2]
$LL9@deflateSet:

; 460  :         do {
; 461  :             UPDATE_HASH(s, s->ins_h, s->window[str + MIN_MATCH-1]);

  00100	48 8b 43 50	 mov	 rax, QWORD PTR [rbx+80]
  00104	8b 8b 80 00 00
	00		 mov	 ecx, DWORD PTR [rbx+128]

; 462  : #ifndef FASTEST
; 463  :             s->prev[str & s->w_mask] = s->head[s->ins_h];

  0010a	48 8b 53 68	 mov	 rdx, QWORD PTR [rbx+104]
  0010e	45 8b c2	 mov	 r8d, r10d
  00111	45 0f b6 0c 03	 movzx	 r9d, BYTE PTR [r11+rax]

; 464  : #endif
; 465  :             s->head[s->ins_h] = (Pos)str;
; 466  :             str++;

  00116	45 8d 5b 01	 lea	 r11d, DWORD PTR [r11+1]
  0011a	8b 43 70	 mov	 eax, DWORD PTR [rbx+112]
  0011d	d3 e0		 shl	 eax, cl
  0011f	48 8b 4b 60	 mov	 rcx, QWORD PTR [rbx+96]
  00123	44 33 c8	 xor	 r9d, eax
  00126	44 23 4b 7c	 and	 r9d, DWORD PTR [rbx+124]
  0012a	8b 43 4c	 mov	 eax, DWORD PTR [rbx+76]
  0012d	4c 23 c0	 and	 r8, rax
  00130	44 89 4b 70	 mov	 DWORD PTR [rbx+112], r9d
  00134	42 0f b7 04 4a	 movzx	 eax, WORD PTR [rdx+r9*2]
  00139	66 42 89 04 41	 mov	 WORD PTR [rcx+r8*2], ax
  0013e	8b 4b 70	 mov	 ecx, DWORD PTR [rbx+112]
  00141	48 8b 43 68	 mov	 rax, QWORD PTR [rbx+104]
  00145	66 44 89 14 48	 mov	 WORD PTR [rax+rcx*2], r10w
  0014a	41 ff c2	 inc	 r10d

; 467  :         } while (--n);

  0014d	83 c7 ff	 add	 edi, -1			; ffffffffH
  00150	75 ae		 jne	 SHORT $LL9@deflateSet

; 468  :         s->strstart = str;
; 469  :         s->lookahead = MIN_MATCH-1;
; 470  :         fill_window(s);

  00152	48 8b cb	 mov	 rcx, rbx
  00155	44 89 93 94 00
	00 00		 mov	 DWORD PTR [rbx+148], r10d
  0015c	c7 83 9c 00 00
	00 02 00 00 00	 mov	 DWORD PTR [rbx+156], 2
  00166	e8 00 00 00 00	 call	 fill_window
  0016b	8b 8b 9c 00 00
	00		 mov	 ecx, DWORD PTR [rbx+156]
  00171	83 f9 03	 cmp	 ecx, 3
  00174	0f 83 78 ff ff
	ff		 jae	 $LL5@deflateSet
$LN6@deflateSet:

; 471  :     }
; 472  :     s->strstart += s->lookahead;

  0017a	01 8b 94 00 00
	00		 add	 DWORD PTR [rbx+148], ecx
  00180	8b 83 94 00 00
	00		 mov	 eax, DWORD PTR [rbx+148]

; 473  :     s->block_start = (long)s->strstart;

  00186	89 83 84 00 00
	00		 mov	 DWORD PTR [rbx+132], eax

; 474  :     s->insert = s->lookahead;
; 475  :     s->lookahead = 0;
; 476  :     s->match_length = s->prev_length = MIN_MATCH-1;
; 477  :     s->match_available = 0;
; 478  :     strm->next_in = next;
; 479  :     strm->avail_in = avail;
; 480  :     s->wrap = wrap;
; 481  :     return Z_OK;

  0018c	33 c0		 xor	 eax, eax
  0018e	44 89 ab 9c 00
	00 00		 mov	 DWORD PTR [rbx+156], r13d
  00195	44 89 ab 90 00
	00 00		 mov	 DWORD PTR [rbx+144], r13d
  0019c	4c 8b 6c 24 58	 mov	 r13, QWORD PTR [rsp+88]
  001a1	89 8b 08 17 00
	00		 mov	 DWORD PTR [rbx+5896], ecx
  001a7	c7 83 a0 00 00
	00 02 00 00 00	 mov	 DWORD PTR [rbx+160], 2
  001b1	c7 83 88 00 00
	00 02 00 00 00	 mov	 DWORD PTR [rbx+136], 2
  001bb	4d 89 26	 mov	 QWORD PTR [r14], r12
  001be	4c 8b 64 24 50	 mov	 r12, QWORD PTR [rsp+80]
  001c3	45 89 7e 08	 mov	 DWORD PTR [r14+8], r15d
  001c7	4c 8b 7c 24 60	 mov	 r15, QWORD PTR [rsp+96]
  001cc	89 6b 2c	 mov	 DWORD PTR [rbx+44], ebp

; 482  : }

  001cf	48 83 c4 20	 add	 rsp, 32			; 00000020H
  001d3	41 5e		 pop	 r14
  001d5	5f		 pop	 rdi
  001d6	5e		 pop	 rsi
  001d7	5d		 pop	 rbp
  001d8	5b		 pop	 rbx
  001d9	c3		 ret	 0
$LN11@deflateSet:

; 428  :         return Z_STREAM_ERROR;

  001da	b8 fe ff ff ff	 mov	 eax, -2

; 482  : }

  001df	48 83 c4 20	 add	 rsp, 32			; 00000020H
  001e3	41 5e		 pop	 r14
  001e5	5f		 pop	 rdi
  001e6	5e		 pop	 rsi
  001e7	5d		 pop	 rbp
  001e8	5b		 pop	 rbx
  001e9	c3		 ret	 0
deflateSetDictionary ENDP
_TEXT	ENDS
; Function compile flags: /Ogtpy
; File G:\1_Projects\BRDF\DisneyBRDF\zlib-1.2.12\deflate.c
;	COMDAT deflateGetDictionary
_TEXT	SEGMENT
strm$ = 48
dictionary$ = 56
dictLength$ = 64
deflateGetDictionary PROC				; COMDAT

; 489  : {

$LN8:
  00000	40 57		 push	 rdi
  00002	48 83 ec 20	 sub	 rsp, 32			; 00000020H
  00006	49 8b f8	 mov	 rdi, r8
  00009	4c 8b ca	 mov	 r9, rdx
  0000c	4c 8b c1	 mov	 r8, rcx

; 490  :     deflate_state *s;
; 491  :     uInt len;
; 492  : 
; 493  :     if (deflateStateCheck(strm))

  0000f	e8 00 00 00 00	 call	 deflateStateCheck
  00014	85 c0		 test	 eax, eax
  00016	74 0b		 je	 SHORT $LN2@deflateGet

; 494  :         return Z_STREAM_ERROR;

  00018	b8 fe ff ff ff	 mov	 eax, -2

; 504  : }

  0001d	48 83 c4 20	 add	 rsp, 32			; 00000020H
  00021	5f		 pop	 rdi
  00022	c3		 ret	 0
$LN2@deflateGet:

; 495  :     s = strm->state;

  00023	49 8b 50 28	 mov	 rdx, QWORD PTR [r8+40]
  00027	48 89 5c 24 30	 mov	 QWORD PTR [rsp+48], rbx

; 496  :     len = s->strstart + s->lookahead;
; 497  :     if (len > s->w_size)

  0002c	8b 5a 44	 mov	 ebx, DWORD PTR [rdx+68]
  0002f	8b 8a 9c 00 00
	00		 mov	 ecx, DWORD PTR [rdx+156]
  00035	44 8b 92 94 00
	00 00		 mov	 r10d, DWORD PTR [rdx+148]
  0003c	41 8d 04 0a	 lea	 eax, DWORD PTR [r10+rcx]

; 498  :         len = s->w_size;
; 499  :     if (dictionary != Z_NULL && len)

  00040	3b c3		 cmp	 eax, ebx
  00042	0f 46 d8	 cmovbe	 ebx, eax
  00045	4d 85 c9	 test	 r9, r9
  00048	74 1c		 je	 SHORT $LN4@deflateGet
  0004a	85 db		 test	 ebx, ebx
  0004c	74 18		 je	 SHORT $LN4@deflateGet

; 500  :         zmemcpy(dictionary, s->window + s->strstart + s->lookahead - len, len);

  0004e	48 8b 52 50	 mov	 rdx, QWORD PTR [rdx+80]
  00052	44 8b c3	 mov	 r8d, ebx
  00055	49 2b d0	 sub	 rdx, r8
  00058	49 03 d2	 add	 rdx, r10
  0005b	48 03 d1	 add	 rdx, rcx
  0005e	49 8b c9	 mov	 rcx, r9
  00061	e8 00 00 00 00	 call	 memcpy
$LN4@deflateGet:

; 501  :     if (dictLength != Z_NULL)

  00066	48 85 ff	 test	 rdi, rdi
  00069	74 02		 je	 SHORT $LN5@deflateGet

; 502  :         *dictLength = len;

  0006b	89 1f		 mov	 DWORD PTR [rdi], ebx
$LN5@deflateGet:

; 503  :     return Z_OK;

  0006d	48 8b 5c 24 30	 mov	 rbx, QWORD PTR [rsp+48]
  00072	33 c0		 xor	 eax, eax

; 504  : }

  00074	48 83 c4 20	 add	 rsp, 32			; 00000020H
  00078	5f		 pop	 rdi
  00079	c3		 ret	 0
deflateGetDictionary ENDP
_TEXT	ENDS
; Function compile flags: /Ogtpy
; File G:\1_Projects\BRDF\DisneyBRDF\zlib-1.2.12\deflate.c
;	COMDAT deflateResetKeep
_TEXT	SEGMENT
strm$ = 48
deflateResetKeep PROC					; COMDAT

; 509  : {

$LN8:
  00000	40 57		 push	 rdi
  00002	48 83 ec 20	 sub	 rsp, 32			; 00000020H
  00006	48 8b f9	 mov	 rdi, rcx

; 510  :     deflate_state *s;
; 511  : 
; 512  :     if (deflateStateCheck(strm)) {

  00009	e8 00 00 00 00	 call	 deflateStateCheck
  0000e	85 c0		 test	 eax, eax
  00010	74 0b		 je	 SHORT $LN2@deflateRes

; 513  :         return Z_STREAM_ERROR;

  00012	b8 fe ff ff ff	 mov	 eax, -2

; 542  : }

  00017	48 83 c4 20	 add	 rsp, 32			; 00000020H
  0001b	5f		 pop	 rdi
  0001c	c3		 ret	 0
$LN2@deflateRes:

; 514  :     }
; 515  : 
; 516  :     strm->total_in = strm->total_out = 0;

  0001d	33 c0		 xor	 eax, eax

; 517  :     strm->msg = Z_NULL; /* use zfree if we ever allocate msg dynamically */
; 518  :     strm->data_type = Z_UNKNOWN;

  0001f	c7 47 48 02 00
	00 00		 mov	 DWORD PTR [rdi+72], 2
  00026	89 47 1c	 mov	 DWORD PTR [rdi+28], eax
  00029	89 47 0c	 mov	 DWORD PTR [rdi+12], eax
  0002c	48 89 47 20	 mov	 QWORD PTR [rdi+32], rax
  00030	48 89 5c 24 30	 mov	 QWORD PTR [rsp+48], rbx

; 519  : 
; 520  :     s = (deflate_state *)strm->state;

  00035	48 8b 5f 28	 mov	 rbx, QWORD PTR [rdi+40]

; 521  :     s->pending = 0;
; 522  :     s->pending_out = s->pending_buf;
; 523  : 
; 524  :     if (s->wrap < 0) {

  00039	8b 4b 2c	 mov	 ecx, DWORD PTR [rbx+44]
  0003c	89 43 28	 mov	 DWORD PTR [rbx+40], eax
  0003f	48 8b 43 10	 mov	 rax, QWORD PTR [rbx+16]
  00043	48 89 43 20	 mov	 QWORD PTR [rbx+32], rax
  00047	85 c9		 test	 ecx, ecx
  00049	79 05		 jns	 SHORT $LN3@deflateRes

; 525  :         s->wrap = -s->wrap; /* was made negative by deflate(..., Z_FINISH); */

  0004b	f7 d9		 neg	 ecx
  0004d	89 4b 2c	 mov	 DWORD PTR [rbx+44], ecx
$LN3@deflateRes:

; 526  :     }
; 527  :     s->status =

  00050	83 f9 02	 cmp	 ecx, 2
  00053	b8 2a 00 00 00	 mov	 eax, 42			; 0000002aH
  00058	ba 39 00 00 00	 mov	 edx, 57			; 00000039H
  0005d	0f 44 c2	 cmove	 eax, edx
  00060	89 43 08	 mov	 DWORD PTR [rbx+8], eax

; 528  : #ifdef GZIP
; 529  :         s->wrap == 2 ? GZIP_STATE :
; 530  : #endif
; 531  :         INIT_STATE;
; 532  :     strm->adler =

  00063	75 0e		 jne	 SHORT $LN5@deflateRes
  00065	45 33 c0	 xor	 r8d, r8d
  00068	33 d2		 xor	 edx, edx
  0006a	33 c9		 xor	 ecx, ecx
  0006c	e8 00 00 00 00	 call	 crc32
  00071	eb 0c		 jmp	 SHORT $LN6@deflateRes
$LN5@deflateRes:
  00073	45 33 c0	 xor	 r8d, r8d
  00076	33 d2		 xor	 edx, edx
  00078	33 c9		 xor	 ecx, ecx
  0007a	e8 00 00 00 00	 call	 adler32
$LN6@deflateRes:
  0007f	89 47 4c	 mov	 DWORD PTR [rdi+76], eax

; 533  : #ifdef GZIP
; 534  :         s->wrap == 2 ? crc32(0L, Z_NULL, 0) :
; 535  : #endif
; 536  :         adler32(0L, Z_NULL, 0);
; 537  :     s->last_flush = -2;
; 538  : 
; 539  :     _tr_init(s);

  00082	48 8b cb	 mov	 rcx, rbx
  00085	c7 43 40 fe ff
	ff ff		 mov	 DWORD PTR [rbx+64], -2
  0008c	e8 00 00 00 00	 call	 _tr_init

; 540  : 
; 541  :     return Z_OK;

  00091	48 8b 5c 24 30	 mov	 rbx, QWORD PTR [rsp+48]
  00096	33 c0		 xor	 eax, eax

; 542  : }

  00098	48 83 c4 20	 add	 rsp, 32			; 00000020H
  0009c	5f		 pop	 rdi
  0009d	c3		 ret	 0
deflateResetKeep ENDP
_TEXT	ENDS
; Function compile flags: /Ogtpy
; File G:\1_Projects\BRDF\DisneyBRDF\zlib-1.2.12\deflate.c
;	COMDAT deflateReset
_TEXT	SEGMENT
strm$ = 48
deflateReset PROC					; COMDAT

; 547  : {

$LN6:
  00000	48 89 5c 24 08	 mov	 QWORD PTR [rsp+8], rbx
  00005	57		 push	 rdi
  00006	48 83 ec 20	 sub	 rsp, 32			; 00000020H
  0000a	48 8b f9	 mov	 rdi, rcx

; 548  :     int ret;
; 549  : 
; 550  :     ret = deflateResetKeep(strm);

  0000d	e8 00 00 00 00	 call	 deflateResetKeep
  00012	8b d8		 mov	 ebx, eax

; 551  :     if (ret == Z_OK)

  00014	85 c0		 test	 eax, eax
  00016	75 0b		 jne	 SHORT $LN2@deflateRes

; 552  :         lm_init(strm->state);

  00018	48 8b 4f 28	 mov	 rcx, QWORD PTR [rdi+40]
  0001c	e8 00 00 00 00	 call	 lm_init

; 553  :     return ret;

  00021	8b c3		 mov	 eax, ebx
$LN2@deflateRes:

; 554  : }

  00023	48 8b 5c 24 30	 mov	 rbx, QWORD PTR [rsp+48]
  00028	48 83 c4 20	 add	 rsp, 32			; 00000020H
  0002c	5f		 pop	 rdi
  0002d	c3		 ret	 0
deflateReset ENDP
_TEXT	ENDS
; Function compile flags: /Ogtpy
; File G:\1_Projects\BRDF\DisneyBRDF\zlib-1.2.12\deflate.c
;	COMDAT deflateSetHeader
_TEXT	SEGMENT
strm$ = 48
head$ = 56
deflateSetHeader PROC					; COMDAT

; 560  : {

$LN6:
  00000	48 83 ec 28	 sub	 rsp, 40			; 00000028H
  00004	4c 8b ca	 mov	 r9, rdx
  00007	4c 8b c1	 mov	 r8, rcx

; 561  :     if (deflateStateCheck(strm) || strm->state->wrap != 2)

  0000a	e8 00 00 00 00	 call	 deflateStateCheck
  0000f	85 c0		 test	 eax, eax
  00011	75 15		 jne	 SHORT $LN3@deflateSet
  00013	49 8b 40 28	 mov	 rax, QWORD PTR [r8+40]
  00017	83 78 2c 02	 cmp	 DWORD PTR [rax+44], 2
  0001b	75 0b		 jne	 SHORT $LN3@deflateSet

; 563  :     strm->state->gzhead = head;

  0001d	4c 89 48 30	 mov	 QWORD PTR [rax+48], r9

; 564  :     return Z_OK;

  00021	33 c0		 xor	 eax, eax

; 565  : }

  00023	48 83 c4 28	 add	 rsp, 40			; 00000028H
  00027	c3		 ret	 0
$LN3@deflateSet:

; 562  :         return Z_STREAM_ERROR;

  00028	b8 fe ff ff ff	 mov	 eax, -2

; 565  : }

  0002d	48 83 c4 28	 add	 rsp, 40			; 00000028H
  00031	c3		 ret	 0
deflateSetHeader ENDP
_TEXT	ENDS
; Function compile flags: /Ogtpy
; File G:\1_Projects\BRDF\DisneyBRDF\zlib-1.2.12\deflate.c
;	COMDAT deflatePending
_TEXT	SEGMENT
strm$ = 48
pending$ = 56
bits$ = 64
deflatePending PROC					; COMDAT

; 572  : {

$LN8:
  00000	48 83 ec 28	 sub	 rsp, 40			; 00000028H
  00004	4c 8b ca	 mov	 r9, rdx
  00007	4c 8b d1	 mov	 r10, rcx

; 573  :     if (deflateStateCheck(strm)) return Z_STREAM_ERROR;

  0000a	e8 00 00 00 00	 call	 deflateStateCheck
  0000f	85 c0		 test	 eax, eax
  00011	74 0a		 je	 SHORT $LN2@deflatePen
  00013	b8 fe ff ff ff	 mov	 eax, -2

; 579  : }

  00018	48 83 c4 28	 add	 rsp, 40			; 00000028H
  0001c	c3		 ret	 0
$LN2@deflatePen:

; 574  :     if (pending != Z_NULL)

  0001d	4d 85 c9	 test	 r9, r9
  00020	74 0a		 je	 SHORT $LN6@deflatePen

; 575  :         *pending = strm->state->pending;

  00022	49 8b 42 28	 mov	 rax, QWORD PTR [r10+40]
  00026	8b 48 28	 mov	 ecx, DWORD PTR [rax+40]
  00029	41 89 09	 mov	 DWORD PTR [r9], ecx
$LN6@deflatePen:

; 576  :     if (bits != Z_NULL)

  0002c	4d 85 c0	 test	 r8, r8
  0002f	74 0d		 je	 SHORT $LN4@deflatePen

; 577  :         *bits = strm->state->bi_valid;

  00031	49 8b 42 28	 mov	 rax, QWORD PTR [r10+40]
  00035	8b 88 10 17 00
	00		 mov	 ecx, DWORD PTR [rax+5904]
  0003b	41 89 08	 mov	 DWORD PTR [r8], ecx
$LN4@deflatePen:

; 578  :     return Z_OK;

  0003e	33 c0		 xor	 eax, eax

; 579  : }

  00040	48 83 c4 28	 add	 rsp, 40			; 00000028H
  00044	c3		 ret	 0
deflatePending ENDP
_TEXT	ENDS
; Function compile flags: /Ogtpy
; File G:\1_Projects\BRDF\DisneyBRDF\zlib-1.2.12\deflate.c
;	COMDAT deflatePrime
_TEXT	SEGMENT
strm$ = 48
bits$ = 56
value$ = 64
deflatePrime PROC					; COMDAT

; 586  : {

$LN14:
  00000	48 89 5c 24 08	 mov	 QWORD PTR [rsp+8], rbx
  00005	57		 push	 rdi
  00006	48 83 ec 20	 sub	 rsp, 32			; 00000020H
  0000a	41 8b f8	 mov	 edi, r8d
  0000d	8b da		 mov	 ebx, edx
  0000f	4c 8b d9	 mov	 r11, rcx

; 587  :     deflate_state *s;
; 588  :     int put;
; 589  : 
; 590  :     if (deflateStateCheck(strm)) return Z_STREAM_ERROR;

  00012	e8 00 00 00 00	 call	 deflateStateCheck
  00017	85 c0		 test	 eax, eax
  00019	74 10		 je	 SHORT $LN5@deflatePri
  0001b	b8 fe ff ff ff	 mov	 eax, -2

; 606  : }

  00020	48 8b 5c 24 30	 mov	 rbx, QWORD PTR [rsp+48]
  00025	48 83 c4 20	 add	 rsp, 32			; 00000020H
  00029	5f		 pop	 rdi
  0002a	c3		 ret	 0
$LN5@deflatePri:

; 591  :     s = strm->state;
; 592  :     if (bits < 0 || bits > 16 ||

  0002b	83 fb 10	 cmp	 ebx, 16
  0002e	77 7f		 ja	 SHORT $LN7@deflatePri
  00030	4d 8b 5b 28	 mov	 r11, QWORD PTR [r11+40]
  00034	49 8b 43 20	 mov	 rax, QWORD PTR [r11+32]
  00038	48 83 c0 02	 add	 rax, 2
  0003c	49 39 83 e8 16
	00 00		 cmp	 QWORD PTR [r11+5864], rax
  00043	72 6a		 jb	 SHORT $LN7@deflatePri
  00045	66 66 66 0f 1f
	84 00 00 00 00
	00		 npad	 11
$LL4@deflatePri:

; 593  :         s->sym_buf < s->pending_out + ((Buf_size + 7) >> 3))
; 594  :         return Z_BUF_ERROR;
; 595  :     do {
; 596  :         put = Buf_size - s->bi_valid;

  00050	41 8b 93 10 17
	00 00		 mov	 edx, DWORD PTR [r11+5904]
  00057	b8 10 00 00 00	 mov	 eax, 16
  0005c	2b c2		 sub	 eax, edx

; 597  :         if (put > bits)
; 598  :             put = bits;
; 599  :         s->bi_buf |= (ush)((value & ((1 << put) - 1)) << s->bi_valid);

  0005e	44 8b d3	 mov	 r10d, ebx
  00061	3b c3		 cmp	 eax, ebx
  00063	44 0f 4e d0	 cmovle	 r10d, eax
  00067	b8 01 00 00 00	 mov	 eax, 1
  0006c	41 8b ca	 mov	 ecx, r10d
  0006f	66 d3 e0	 shl	 ax, cl
  00072	8b ca		 mov	 ecx, edx
  00074	66 ff c8	 dec	 ax
  00077	66 23 c7	 and	 ax, di
  0007a	66 d3 e0	 shl	 ax, cl

; 600  :         s->bi_valid += put;
; 601  :         _tr_flush_bits(s);

  0007d	49 8b cb	 mov	 rcx, r11
  00080	66 41 09 83 0c
	17 00 00	 or	 WORD PTR [r11+5900], ax
  00088	41 8d 04 12	 lea	 eax, DWORD PTR [r10+rdx]
  0008c	41 89 83 10 17
	00 00		 mov	 DWORD PTR [r11+5904], eax
  00093	e8 00 00 00 00	 call	 _tr_flush_bits

; 602  :         value >>= put;

  00098	41 8b ca	 mov	 ecx, r10d
  0009b	d3 ff		 sar	 edi, cl

; 603  :         bits -= put;

  0009d	41 2b da	 sub	 ebx, r10d

; 604  :     } while (bits);

  000a0	75 ae		 jne	 SHORT $LL4@deflatePri

; 605  :     return Z_OK;

  000a2	33 c0		 xor	 eax, eax

; 606  : }

  000a4	48 8b 5c 24 30	 mov	 rbx, QWORD PTR [rsp+48]
  000a9	48 83 c4 20	 add	 rsp, 32			; 00000020H
  000ad	5f		 pop	 rdi
  000ae	c3		 ret	 0
$LN7@deflatePri:
  000af	48 8b 5c 24 30	 mov	 rbx, QWORD PTR [rsp+48]
  000b4	b8 fb ff ff ff	 mov	 eax, -5
  000b9	48 83 c4 20	 add	 rsp, 32			; 00000020H
  000bd	5f		 pop	 rdi
  000be	c3		 ret	 0
deflatePrime ENDP
_TEXT	ENDS
; Function compile flags: /Ogtpy
; File G:\1_Projects\BRDF\DisneyBRDF\zlib-1.2.12\deflate.c
;	COMDAT deflateParams
_TEXT	SEGMENT
strm$ = 64
level$ = 72
strategy$ = 80
deflateParams PROC					; COMDAT

; 613  : {

$LN24:
  00000	48 89 5c 24 08	 mov	 QWORD PTR [rsp+8], rbx
  00005	48 89 6c 24 10	 mov	 QWORD PTR [rsp+16], rbp
  0000a	48 89 74 24 18	 mov	 QWORD PTR [rsp+24], rsi
  0000f	48 89 7c 24 20	 mov	 QWORD PTR [rsp+32], rdi
  00014	41 54		 push	 r12
  00016	41 56		 push	 r14
  00018	41 57		 push	 r15
  0001a	48 83 ec 20	 sub	 rsp, 32			; 00000020H
  0001e	45 8b f0	 mov	 r14d, r8d
  00021	48 8b e9	 mov	 rbp, rcx
  00024	44 8b c2	 mov	 r8d, edx

; 614  :     deflate_state *s;
; 615  :     compress_func func;
; 616  : 
; 617  :     if (deflateStateCheck(strm)) return Z_STREAM_ERROR;

  00027	e8 00 00 00 00	 call	 deflateStateCheck
  0002c	85 c0		 test	 eax, eax
  0002e	0f 85 22 01 00
	00		 jne	 $LN8@deflatePar

; 618  :     s = strm->state;

  00034	48 8b 5d 28	 mov	 rbx, QWORD PTR [rbp+40]

; 619  : 
; 620  : #ifdef FASTEST
; 621  :     if (level != 0) level = 1;
; 622  : #else
; 623  :     if (level == Z_DEFAULT_COMPRESSION) level = 6;
; 624  : #endif
; 625  :     if (level < 0 || level > 9 || strategy < 0 || strategy > Z_FIXED) {

  00038	41 83 f8 ff	 cmp	 r8d, -1
  0003c	be 06 00 00 00	 mov	 esi, 6
  00041	41 0f 45 f0	 cmovne	 esi, r8d
  00045	83 fe 09	 cmp	 esi, 9
  00048	0f 87 08 01 00
	00		 ja	 $LN8@deflatePar
  0004e	41 83 fe 04	 cmp	 r14d, 4
  00052	0f 87 fe 00 00
	00		 ja	 $LN8@deflatePar

; 627  :     }
; 628  :     func = configuration_table[s->level].func;
; 629  : 
; 630  :     if ((strategy != s->strategy || func != configuration_table[level].func) &&

  00058	4c 8d 25 00 00
	00 00		 lea	 r12, OFFSET FLAT:configuration_table
  0005f	48 8d bb ac 00
	00 00		 lea	 rdi, QWORD PTR [rbx+172]
  00066	44 3b b3 b0 00
	00 00		 cmp	 r14d, DWORD PTR [rbx+176]
  0006d	75 18		 jne	 SHORT $LN19@deflatePar
  0006f	48 63 0f	 movsxd	 rcx, DWORD PTR [rdi]
  00072	48 63 c6	 movsxd	 rax, esi
  00075	48 03 c9	 add	 rcx, rcx
  00078	48 03 c0	 add	 rax, rax
  0007b	49 8b 44 c4 08	 mov	 rax, QWORD PTR [r12+rax*8+8]
  00080	49 39 44 cc 08	 cmp	 QWORD PTR [r12+rcx*8+8], rax
  00085	74 40		 je	 SHORT $LN12@deflatePar
$LN19@deflatePar:
  00087	83 7b 40 fe	 cmp	 DWORD PTR [rbx+64], -2
  0008b	74 3a		 je	 SHORT $LN12@deflatePar

; 631  :         s->last_flush != -2) {
; 632  :         /* Flush the last buffer: */
; 633  :         int err = deflate(strm, Z_BLOCK);

  0008d	ba 05 00 00 00	 mov	 edx, 5
  00092	48 8b cd	 mov	 rcx, rbp
  00095	e8 00 00 00 00	 call	 deflate

; 634  :         if (err == Z_STREAM_ERROR)

  0009a	83 f8 fe	 cmp	 eax, -2
  0009d	0f 84 b3 00 00
	00		 je	 $LN8@deflatePar

; 635  :             return err;
; 636  :         if (strm->avail_in || (s->strstart - s->block_start) + s->lookahead)

  000a3	83 7d 08 00	 cmp	 DWORD PTR [rbp+8], 0
  000a7	75 14		 jne	 SHORT $LN13@deflatePar
  000a9	8b 83 9c 00 00
	00		 mov	 eax, DWORD PTR [rbx+156]
  000af	2b 83 84 00 00
	00		 sub	 eax, DWORD PTR [rbx+132]
  000b5	03 83 94 00 00
	00		 add	 eax, DWORD PTR [rbx+148]
  000bb	74 0a		 je	 SHORT $LN12@deflatePar
$LN13@deflatePar:

; 637  :             return Z_BUF_ERROR;

  000bd	b8 fb ff ff ff	 mov	 eax, -5
  000c2	e9 94 00 00 00	 jmp	 $LN1@deflatePar
$LN12@deflatePar:

; 638  :     }
; 639  :     if (s->level != level) {

  000c7	8b 07		 mov	 eax, DWORD PTR [rdi]
  000c9	3b c6		 cmp	 eax, esi
  000cb	74 7e		 je	 SHORT $LN14@deflatePar

; 640  :         if (s->level == 0 && s->matches != 0) {

  000cd	85 c0		 test	 eax, eax
  000cf	75 43		 jne	 SHORT $LN15@deflatePar
  000d1	8b 83 04 17 00
	00		 mov	 eax, DWORD PTR [rbx+5892]
  000d7	85 c0		 test	 eax, eax
  000d9	74 39		 je	 SHORT $LN15@deflatePar

; 641  :             if (s->matches == 1)

  000db	33 ed		 xor	 ebp, ebp
  000dd	83 f8 01	 cmp	 eax, 1
  000e0	75 0a		 jne	 SHORT $LN4@deflatePar

; 642  :                 slide_hash(s);

  000e2	48 8b cb	 mov	 rcx, rbx
  000e5	e8 00 00 00 00	 call	 slide_hash
  000ea	eb 22		 jmp	 SHORT $LN3@deflatePar
$LN4@deflatePar:

; 643  :             else
; 644  :                 CLEAR_HASH(s);

  000ec	8b 4b 74	 mov	 ecx, DWORD PTR [rbx+116]
  000ef	33 d2		 xor	 edx, edx
  000f1	48 8b 43 68	 mov	 rax, QWORD PTR [rbx+104]
  000f5	ff c9		 dec	 ecx
  000f7	66 89 2c 48	 mov	 WORD PTR [rax+rcx*2], bp
  000fb	44 8b 43 74	 mov	 r8d, DWORD PTR [rbx+116]
  000ff	48 8b 4b 68	 mov	 rcx, QWORD PTR [rbx+104]
  00103	41 ff c8	 dec	 r8d
  00106	4d 03 c0	 add	 r8, r8
  00109	e8 00 00 00 00	 call	 memset
$LN3@deflatePar:

; 645  :             s->matches = 0;

  0010e	89 ab 04 17 00
	00		 mov	 DWORD PTR [rbx+5892], ebp
$LN15@deflatePar:

; 646  :         }
; 647  :         s->level = level;

  00114	89 37		 mov	 DWORD PTR [rdi], esi

; 648  :         s->max_lazy_match   = configuration_table[level].max_lazy;

  00116	48 63 ce	 movsxd	 rcx, esi
  00119	48 03 c9	 add	 rcx, rcx
  0011c	41 0f b7 44 cc
	02		 movzx	 eax, WORD PTR [r12+rcx*8+2]
  00122	89 83 a8 00 00
	00		 mov	 DWORD PTR [rbx+168], eax

; 649  :         s->good_match       = configuration_table[level].good_length;

  00128	41 0f b7 04 cc	 movzx	 eax, WORD PTR [r12+rcx*8]
  0012d	89 83 b4 00 00
	00		 mov	 DWORD PTR [rbx+180], eax

; 650  :         s->nice_match       = configuration_table[level].nice_length;

  00133	41 0f b7 44 cc
	04		 movzx	 eax, WORD PTR [r12+rcx*8+4]
  00139	89 83 b8 00 00
	00		 mov	 DWORD PTR [rbx+184], eax

; 651  :         s->max_chain_length = configuration_table[level].max_chain;

  0013f	41 0f b7 44 cc
	06		 movzx	 eax, WORD PTR [r12+rcx*8+6]
  00145	89 83 a4 00 00
	00		 mov	 DWORD PTR [rbx+164], eax
$LN14@deflatePar:

; 652  :     }
; 653  :     s->strategy = strategy;

  0014b	44 89 b3 b0 00
	00 00		 mov	 DWORD PTR [rbx+176], r14d

; 654  :     return Z_OK;

  00152	33 c0		 xor	 eax, eax
  00154	eb 05		 jmp	 SHORT $LN1@deflatePar
$LN8@deflatePar:

; 626  :         return Z_STREAM_ERROR;

  00156	b8 fe ff ff ff	 mov	 eax, -2
$LN1@deflatePar:

; 655  : }

  0015b	48 8b 5c 24 40	 mov	 rbx, QWORD PTR [rsp+64]
  00160	48 8b 6c 24 48	 mov	 rbp, QWORD PTR [rsp+72]
  00165	48 8b 74 24 50	 mov	 rsi, QWORD PTR [rsp+80]
  0016a	48 8b 7c 24 58	 mov	 rdi, QWORD PTR [rsp+88]
  0016f	48 83 c4 20	 add	 rsp, 32			; 00000020H
  00173	41 5f		 pop	 r15
  00175	41 5e		 pop	 r14
  00177	41 5c		 pop	 r12
  00179	c3		 ret	 0
deflateParams ENDP
_TEXT	ENDS
; Function compile flags: /Ogtpy
; File G:\1_Projects\BRDF\DisneyBRDF\zlib-1.2.12\deflate.c
;	COMDAT deflateTune
_TEXT	SEGMENT
strm$ = 48
good_length$ = 56
max_lazy$ = 64
nice_length$ = 72
max_chain$ = 80
deflateTune PROC					; COMDAT

; 664  : {

$LN5:
  00000	48 83 ec 28	 sub	 rsp, 40			; 00000028H
  00004	44 8b da	 mov	 r11d, edx
  00007	4c 8b d1	 mov	 r10, rcx

; 665  :     deflate_state *s;
; 666  : 
; 667  :     if (deflateStateCheck(strm)) return Z_STREAM_ERROR;

  0000a	e8 00 00 00 00	 call	 deflateStateCheck
  0000f	85 c0		 test	 eax, eax
  00011	74 0a		 je	 SHORT $LN2@deflateTun
  00013	b8 fe ff ff ff	 mov	 eax, -2

; 674  : }

  00018	48 83 c4 28	 add	 rsp, 40			; 00000028H
  0001c	c3		 ret	 0
$LN2@deflateTun:

; 668  :     s = strm->state;

  0001d	49 8b 4a 28	 mov	 rcx, QWORD PTR [r10+40]

; 669  :     s->good_match = (uInt)good_length;
; 670  :     s->max_lazy_match = (uInt)max_lazy;
; 671  :     s->nice_match = nice_length;
; 672  :     s->max_chain_length = (uInt)max_chain;

  00021	8b 44 24 50	 mov	 eax, DWORD PTR max_chain$[rsp]
  00025	89 81 a4 00 00
	00		 mov	 DWORD PTR [rcx+164], eax

; 673  :     return Z_OK;

  0002b	33 c0		 xor	 eax, eax
  0002d	44 89 99 b4 00
	00 00		 mov	 DWORD PTR [rcx+180], r11d
  00034	44 89 81 a8 00
	00 00		 mov	 DWORD PTR [rcx+168], r8d
  0003b	44 89 89 b8 00
	00 00		 mov	 DWORD PTR [rcx+184], r9d

; 674  : }

  00042	48 83 c4 28	 add	 rsp, 40			; 00000028H
  00046	c3		 ret	 0
deflateTune ENDP
_TEXT	ENDS
; Function compile flags: /Ogtpy
; File G:\1_Projects\BRDF\DisneyBRDF\zlib-1.2.12\deflate.c
;	COMDAT deflateBound
_TEXT	SEGMENT
strm$ = 48
sourceLen$ = 56
deflateBound PROC					; COMDAT

; 696  : {

$LN30:
  00000	48 83 ec 28	 sub	 rsp, 40			; 00000028H

; 697  :     deflate_state *s;
; 698  :     uLong complen, wraplen;
; 699  : 
; 700  :     /* conservative upper bound for compressed data */
; 701  :     complen = sourceLen +

  00004	44 8d 5a 3f	 lea	 r11d, DWORD PTR [rdx+63]
  00008	44 8b d2	 mov	 r10d, edx
  0000b	44 8d 42 07	 lea	 r8d, DWORD PTR [rdx+7]
  0000f	41 c1 eb 06	 shr	 r11d, 6
  00013	44 03 da	 add	 r11d, edx
  00016	41 c1 e8 03	 shr	 r8d, 3
  0001a	41 83 c0 05	 add	 r8d, 5
  0001e	4c 8b c9	 mov	 r9, rcx
  00021	45 03 d8	 add	 r11d, r8d

; 702  :               ((sourceLen + 7) >> 3) + ((sourceLen + 63) >> 6) + 5;
; 703  : 
; 704  :     /* if can't get parameters, return conservative bound plus zlib wrapper */
; 705  :     if (deflateStateCheck(strm))

  00024	e8 00 00 00 00	 call	 deflateStateCheck
  00029	85 c0		 test	 eax, eax
  0002b	74 09		 je	 SHORT $LN10@deflateBou

; 706  :         return complen + 6;

  0002d	41 8d 43 06	 lea	 eax, DWORD PTR [r11+6]

; 749  :            (sourceLen >> 25) + 13 - 6 + wraplen;
; 750  : }

  00031	48 83 c4 28	 add	 rsp, 40			; 00000028H
  00035	c3		 ret	 0
$LN10@deflateBou:

; 707  : 
; 708  :     /* compute wrapper length */
; 709  :     s = strm->state;

  00036	4d 8b 49 28	 mov	 r9, QWORD PTR [r9+40]

; 710  :     switch (s->wrap) {

  0003a	41 8b 49 2c	 mov	 ecx, DWORD PTR [r9+44]
  0003e	85 c9		 test	 ecx, ecx
  00040	0f 84 8d 00 00
	00		 je	 $LN11@deflateBou
  00046	83 e9 01	 sub	 ecx, 1
  00049	74 6f		 je	 SHORT $LN12@deflateBou
  0004b	83 f9 01	 cmp	 ecx, 1
  0004e	74 0b		 je	 SHORT $LN13@deflateBou

; 738  : #endif
; 739  :     default:                                /* for compiler happiness */
; 740  :         wraplen = 6;

  00050	41 b8 06 00 00
	00		 mov	 r8d, 6
  00056	e9 7b 00 00 00	 jmp	 $LN2@deflateBou
$LN13@deflateBou:

; 717  : #ifdef GZIP
; 718  :     case 2:                                 /* gzip wrapper */
; 719  :         wraplen = 18;
; 720  :         if (s->gzhead != Z_NULL) {          /* user-supplied gzip header */

  0005b	49 8b 51 30	 mov	 rdx, QWORD PTR [r9+48]
  0005f	41 b8 12 00 00
	00		 mov	 r8d, 18
  00065	48 85 d2	 test	 rdx, rdx
  00068	74 6c		 je	 SHORT $LN2@deflateBou

; 721  :             Bytef *str;
; 722  :             if (s->gzhead->extra != Z_NULL)

  0006a	48 83 7a 10 00	 cmp	 QWORD PTR [rdx+16], 0
  0006f	74 08		 je	 SHORT $LN15@deflateBou

; 723  :                 wraplen += 2 + s->gzhead->extra_len;

  00071	44 8b 42 18	 mov	 r8d, DWORD PTR [rdx+24]
  00075	41 83 c0 14	 add	 r8d, 20
$LN15@deflateBou:

; 724  :             str = s->gzhead->name;

  00079	48 8b 4a 20	 mov	 rcx, QWORD PTR [rdx+32]

; 725  :             if (str != Z_NULL)

  0007d	48 85 c9	 test	 rcx, rcx
  00080	74 0e		 je	 SHORT $LN5@deflateBou
$LL6@deflateBou:

; 726  :                 do {
; 727  :                     wraplen++;
; 728  :                 } while (*str++);

  00082	0f b6 01	 movzx	 eax, BYTE PTR [rcx]
  00085	48 8d 49 01	 lea	 rcx, QWORD PTR [rcx+1]
  00089	41 ff c0	 inc	 r8d
  0008c	84 c0		 test	 al, al
  0008e	75 f2		 jne	 SHORT $LL6@deflateBou
$LN5@deflateBou:

; 729  :             str = s->gzhead->comment;

  00090	48 8b 4a 30	 mov	 rcx, QWORD PTR [rdx+48]

; 730  :             if (str != Z_NULL)

  00094	48 85 c9	 test	 rcx, rcx
  00097	74 15		 je	 SHORT $LN8@deflateBou
  00099	0f 1f 80 00 00
	00 00		 npad	 7
$LL9@deflateBou:

; 731  :                 do {
; 732  :                     wraplen++;
; 733  :                 } while (*str++);

  000a0	0f b6 01	 movzx	 eax, BYTE PTR [rcx]
  000a3	48 8d 49 01	 lea	 rcx, QWORD PTR [rcx+1]
  000a7	41 ff c0	 inc	 r8d
  000aa	84 c0		 test	 al, al
  000ac	75 f2		 jne	 SHORT $LL9@deflateBou
$LN8@deflateBou:

; 734  :             if (s->gzhead->hcrc)

  000ae	83 7a 3c 00	 cmp	 DWORD PTR [rdx+60], 0
  000b2	74 22		 je	 SHORT $LN2@deflateBou

; 735  :                 wraplen += 2;

  000b4	41 83 c0 02	 add	 r8d, 2

; 736  :         }
; 737  :         break;

  000b8	eb 1c		 jmp	 SHORT $LN2@deflateBou
$LN12@deflateBou:

; 713  :         break;
; 714  :     case 1:                                 /* zlib wrapper */
; 715  :         wraplen = 6 + (s->strstart ? 4 : 0);

  000ba	41 83 b9 94 00
	00 00 00	 cmp	 DWORD PTR [r9+148], 0
  000c2	b8 0a 00 00 00	 mov	 eax, 10
  000c7	41 b8 06 00 00
	00		 mov	 r8d, 6
  000cd	44 0f 45 c0	 cmovne	 r8d, eax

; 716  :         break;

  000d1	eb 03		 jmp	 SHORT $LN2@deflateBou
$LN11@deflateBou:

; 711  :     case 0:                                 /* raw deflate */
; 712  :         wraplen = 0;

  000d3	45 33 c0	 xor	 r8d, r8d
$LN2@deflateBou:

; 741  :     }
; 742  : 
; 743  :     /* if not default parameters, return conservative bound */
; 744  :     if (s->w_bits != 15 || s->hash_bits != 8 + 7)

  000d6	41 83 79 48 0f	 cmp	 DWORD PTR [r9+72], 15
  000db	75 2b		 jne	 SHORT $LN21@deflateBou
  000dd	41 83 79 78 0f	 cmp	 DWORD PTR [r9+120], 15
  000e2	75 24		 jne	 SHORT $LN21@deflateBou

; 746  : 
; 747  :     /* default settings: return tight bound for that case */
; 748  :     return sourceLen + (sourceLen >> 12) + (sourceLen >> 14) +

  000e4	41 8b d2	 mov	 edx, r10d
  000e7	41 8b ca	 mov	 ecx, r10d
  000ea	c1 ea 0e	 shr	 edx, 14
  000ed	41 8b c2	 mov	 eax, r10d
  000f0	c1 e8 0c	 shr	 eax, 12
  000f3	41 03 d0	 add	 edx, r8d
  000f6	c1 e9 19	 shr	 ecx, 25
  000f9	83 c0 07	 add	 eax, 7
  000fc	03 d1		 add	 edx, ecx
  000fe	03 c2		 add	 eax, edx
  00100	41 03 c2	 add	 eax, r10d

; 749  :            (sourceLen >> 25) + 13 - 6 + wraplen;
; 750  : }

  00103	48 83 c4 28	 add	 rsp, 40			; 00000028H
  00107	c3		 ret	 0
$LN21@deflateBou:

; 745  :         return complen + wraplen;

  00108	43 8d 04 18	 lea	 eax, DWORD PTR [r8+r11]

; 749  :            (sourceLen >> 25) + 13 - 6 + wraplen;
; 750  : }

  0010c	48 83 c4 28	 add	 rsp, 40			; 00000028H
  00110	c3		 ret	 0
deflateBound ENDP
_TEXT	ENDS
; Function compile flags: /Ogtpy
; File G:\1_Projects\BRDF\DisneyBRDF\zlib-1.2.12\deflate.c
;	COMDAT putShortMSB
_TEXT	SEGMENT
s$ = 8
b$ = 16
putShortMSB PROC					; COMDAT

; 761  :     put_byte(s, (Byte)(b >> 8));

  00000	44 8b 41 28	 mov	 r8d, DWORD PTR [rcx+40]
  00004	44 8b ca	 mov	 r9d, edx
  00007	48 8b 41 10	 mov	 rax, QWORD PTR [rcx+16]
  0000b	41 c1 e9 08	 shr	 r9d, 8
  0000f	45 88 0c 00	 mov	 BYTE PTR [r8+rax], r9b
  00013	ff 41 28	 inc	 DWORD PTR [rcx+40]
  00016	44 8b 41 28	 mov	 r8d, DWORD PTR [rcx+40]

; 762  :     put_byte(s, (Byte)(b & 0xff));

  0001a	48 8b 41 10	 mov	 rax, QWORD PTR [rcx+16]
  0001e	41 88 14 00	 mov	 BYTE PTR [r8+rax], dl
  00022	ff 41 28	 inc	 DWORD PTR [rcx+40]

; 763  : }

  00025	c3		 ret	 0
putShortMSB ENDP
_TEXT	ENDS
; Function compile flags: /Ogtpy
; File G:\1_Projects\BRDF\DisneyBRDF\zlib-1.2.12\deflate.c
;	COMDAT flush_pending
_TEXT	SEGMENT
strm$ = 48
flush_pending PROC					; COMDAT

; 773  : {

  00000	48 89 6c 24 10	 mov	 QWORD PTR [rsp+16], rbp
  00005	48 89 74 24 18	 mov	 QWORD PTR [rsp+24], rsi
  0000a	57		 push	 rdi
  0000b	48 83 ec 20	 sub	 rsp, 32			; 00000020H

; 774  :     unsigned len;
; 775  :     deflate_state *s = strm->state;

  0000f	48 8b 79 28	 mov	 rdi, QWORD PTR [rcx+40]
  00013	48 8b f1	 mov	 rsi, rcx

; 776  : 
; 777  :     _tr_flush_bits(s);

  00016	48 8b cf	 mov	 rcx, rdi
  00019	e8 00 00 00 00	 call	 _tr_flush_bits

; 778  :     len = s->pending;
; 779  :     if (len > strm->avail_out) len = strm->avail_out;

  0001e	8b 6e 18	 mov	 ebp, DWORD PTR [rsi+24]

; 780  :     if (len == 0) return;

  00021	39 6f 28	 cmp	 DWORD PTR [rdi+40], ebp
  00024	0f 46 6f 28	 cmovbe	 ebp, DWORD PTR [rdi+40]
  00028	85 ed		 test	 ebp, ebp
  0002a	74 37		 je	 SHORT $LN4@flush_pend

; 781  : 
; 782  :     zmemcpy(strm->next_out, s->pending_out, len);

  0002c	48 8b 57 20	 mov	 rdx, QWORD PTR [rdi+32]
  00030	48 8b 4e 10	 mov	 rcx, QWORD PTR [rsi+16]
  00034	48 89 5c 24 30	 mov	 QWORD PTR [rsp+48], rbx
  00039	44 8b c5	 mov	 r8d, ebp
  0003c	8b dd		 mov	 ebx, ebp
  0003e	e8 00 00 00 00	 call	 memcpy

; 783  :     strm->next_out  += len;

  00043	48 01 5e 10	 add	 QWORD PTR [rsi+16], rbx

; 784  :     s->pending_out  += len;

  00047	48 01 5f 20	 add	 QWORD PTR [rdi+32], rbx

; 785  :     strm->total_out += len;

  0004b	01 6e 1c	 add	 DWORD PTR [rsi+28], ebp

; 786  :     strm->avail_out -= len;

  0004e	29 6e 18	 sub	 DWORD PTR [rsi+24], ebp

; 787  :     s->pending      -= len;

  00051	29 6f 28	 sub	 DWORD PTR [rdi+40], ebp
  00054	48 8b 5c 24 30	 mov	 rbx, QWORD PTR [rsp+48]

; 788  :     if (s->pending == 0) {

  00059	75 08		 jne	 SHORT $LN4@flush_pend

; 789  :         s->pending_out = s->pending_buf;

  0005b	48 8b 47 10	 mov	 rax, QWORD PTR [rdi+16]
  0005f	48 89 47 20	 mov	 QWORD PTR [rdi+32], rax
$LN4@flush_pend:

; 790  :     }
; 791  : }

  00063	48 8b 6c 24 38	 mov	 rbp, QWORD PTR [rsp+56]
  00068	48 8b 74 24 40	 mov	 rsi, QWORD PTR [rsp+64]
  0006d	48 83 c4 20	 add	 rsp, 32			; 00000020H
  00071	5f		 pop	 rdi
  00072	c3		 ret	 0
flush_pending ENDP
_TEXT	ENDS
; Function compile flags: /Ogtpy
; File G:\1_Projects\BRDF\DisneyBRDF\zlib-1.2.12\deflate.c
;	COMDAT deflateCopy
_TEXT	SEGMENT
dest$ = 48
source$ = 56
deflateCopy PROC					; COMDAT

; 1148 : {

$LN12:
  00000	40 57		 push	 rdi
  00002	48 83 ec 20	 sub	 rsp, 32			; 00000020H
  00006	48 8b f9	 mov	 rdi, rcx
  00009	4c 8b c2	 mov	 r8, rdx

; 1149 : #ifdef MAXSEG_64K
; 1150 :     return Z_STREAM_ERROR;
; 1151 : #else
; 1152 :     deflate_state *ds;
; 1153 :     deflate_state *ss;
; 1154 : 
; 1155 : 
; 1156 :     if (deflateStateCheck(source) || dest == Z_NULL) {

  0000c	48 8b ca	 mov	 rcx, rdx
  0000f	e8 00 00 00 00	 call	 deflateStateCheck
  00014	85 c0		 test	 eax, eax
  00016	0f 85 c3 01 00
	00		 jne	 $LN3@deflateCop
  0001c	48 85 ff	 test	 rdi, rdi
  0001f	0f 84 ba 01 00
	00		 je	 $LN3@deflateCop

; 1158 :     }
; 1159 : 
; 1160 :     ss = source->state;
; 1161 : 
; 1162 :     zmemcpy((voidpf)dest, (voidpf)source, sizeof(z_stream));

  00025	41 0f 10 00	 movups	 xmm0, XMMWORD PTR [r8]
  00029	48 89 5c 24 30	 mov	 QWORD PTR [rsp+48], rbx

; 1163 : 
; 1164 :     ds = (deflate_state *) ZALLOC(dest, 1, sizeof(deflate_state));

  0002e	8d 50 01	 lea	 edx, QWORD PTR [rax+1]
  00031	48 89 74 24 38	 mov	 QWORD PTR [rsp+56], rsi
  00036	49 8b 70 28	 mov	 rsi, QWORD PTR [r8+40]
  0003a	0f 11 07	 movups	 XMMWORD PTR [rdi], xmm0
  0003d	41 0f 10 48 10	 movups	 xmm1, XMMWORD PTR [r8+16]
  00042	0f 11 4f 10	 movups	 XMMWORD PTR [rdi+16], xmm1
  00046	41 0f 10 40 20	 movups	 xmm0, XMMWORD PTR [r8+32]
  0004b	0f 11 47 20	 movups	 XMMWORD PTR [rdi+32], xmm0
  0004f	41 0f 10 48 30	 movups	 xmm1, XMMWORD PTR [r8+48]
  00054	0f 11 4f 30	 movups	 XMMWORD PTR [rdi+48], xmm1
  00058	41 0f 10 40 40	 movups	 xmm0, XMMWORD PTR [r8+64]
  0005d	0f 11 47 40	 movups	 XMMWORD PTR [rdi+64], xmm0
  00061	f2 41 0f 10 48
	50		 movsd	 xmm1, QWORD PTR [r8+80]
  00067	41 b8 18 17 00
	00		 mov	 r8d, 5912		; 00001718H
  0006d	f2 0f 11 4f 50	 movsd	 QWORD PTR [rdi+80], xmm1
  00072	48 8b 4f 40	 mov	 rcx, QWORD PTR [rdi+64]
  00076	ff 57 30	 call	 QWORD PTR [rdi+48]
  00079	48 8b d8	 mov	 rbx, rax

; 1165 :     if (ds == Z_NULL) return Z_MEM_ERROR;

  0007c	48 85 c0	 test	 rax, rax
  0007f	0f 84 45 01 00
	00		 je	 $LN10@deflateCop

; 1166 :     dest->state = (struct internal_state FAR *) ds;
; 1167 :     zmemcpy((voidpf)ds, (voidpf)ss, sizeof(deflate_state));

  00085	41 b8 18 17 00
	00		 mov	 r8d, 5912		; 00001718H
  0008b	48 89 47 28	 mov	 QWORD PTR [rdi+40], rax
  0008f	48 8b d6	 mov	 rdx, rsi
  00092	48 8b c8	 mov	 rcx, rax
  00095	e8 00 00 00 00	 call	 memcpy

; 1168 :     ds->strm = dest;
; 1169 : 
; 1170 :     ds->window = (Bytef *) ZALLOC(dest, ds->w_size, 2*sizeof(Byte));

  0009a	8b 53 44	 mov	 edx, DWORD PTR [rbx+68]
  0009d	41 b8 02 00 00
	00		 mov	 r8d, 2
  000a3	48 89 3b	 mov	 QWORD PTR [rbx], rdi
  000a6	48 8b 4f 40	 mov	 rcx, QWORD PTR [rdi+64]
  000aa	ff 57 30	 call	 QWORD PTR [rdi+48]

; 1171 :     ds->prev   = (Posf *)  ZALLOC(dest, ds->w_size, sizeof(Pos));

  000ad	8b 53 44	 mov	 edx, DWORD PTR [rbx+68]
  000b0	41 b8 02 00 00
	00		 mov	 r8d, 2
  000b6	48 89 43 50	 mov	 QWORD PTR [rbx+80], rax
  000ba	48 8b 4f 40	 mov	 rcx, QWORD PTR [rdi+64]
  000be	ff 57 30	 call	 QWORD PTR [rdi+48]

; 1172 :     ds->head   = (Posf *)  ZALLOC(dest, ds->hash_size, sizeof(Pos));

  000c1	8b 53 74	 mov	 edx, DWORD PTR [rbx+116]
  000c4	41 b8 02 00 00
	00		 mov	 r8d, 2
  000ca	48 89 43 60	 mov	 QWORD PTR [rbx+96], rax
  000ce	48 8b 4f 40	 mov	 rcx, QWORD PTR [rdi+64]
  000d2	ff 57 30	 call	 QWORD PTR [rdi+48]

; 1173 :     ds->pending_buf = (uchf *) ZALLOC(dest, ds->lit_bufsize, 4);

  000d5	8b 93 f0 16 00
	00		 mov	 edx, DWORD PTR [rbx+5872]
  000db	41 b8 04 00 00
	00		 mov	 r8d, 4
  000e1	48 89 43 68	 mov	 QWORD PTR [rbx+104], rax
  000e5	48 8b 4f 40	 mov	 rcx, QWORD PTR [rdi+64]
  000e9	ff 57 30	 call	 QWORD PTR [rdi+48]

; 1174 : 
; 1175 :     if (ds->window == Z_NULL || ds->prev == Z_NULL || ds->head == Z_NULL ||

  000ec	48 8b 4b 50	 mov	 rcx, QWORD PTR [rbx+80]
  000f0	48 89 43 10	 mov	 QWORD PTR [rbx+16], rax
  000f4	48 85 c9	 test	 rcx, rcx
  000f7	0f 84 c5 00 00
	00		 je	 $LN6@deflateCop
  000fd	48 83 7b 60 00	 cmp	 QWORD PTR [rbx+96], 0
  00102	0f 84 ba 00 00
	00		 je	 $LN6@deflateCop
  00108	48 83 7b 68 00	 cmp	 QWORD PTR [rbx+104], 0
  0010d	0f 84 af 00 00
	00		 je	 $LN6@deflateCop
  00113	48 85 c0	 test	 rax, rax
  00116	0f 84 a6 00 00
	00		 je	 $LN6@deflateCop

; 1179 :     }
; 1180 :     /* following zmemcpy do not work for 16-bit MSDOS */
; 1181 :     zmemcpy(ds->window, ss->window, ds->w_size * 2 * sizeof(Byte));

  0011c	8b 43 44	 mov	 eax, DWORD PTR [rbx+68]
  0011f	48 8b 56 50	 mov	 rdx, QWORD PTR [rsi+80]
  00123	44 8d 04 00	 lea	 r8d, DWORD PTR [rax+rax]
  00127	e8 00 00 00 00	 call	 memcpy

; 1182 :     zmemcpy((voidpf)ds->prev, (voidpf)ss->prev, ds->w_size * sizeof(Pos));

  0012c	44 8b 43 44	 mov	 r8d, DWORD PTR [rbx+68]
  00130	48 8b 56 60	 mov	 rdx, QWORD PTR [rsi+96]
  00134	4d 03 c0	 add	 r8, r8
  00137	48 8b 4b 60	 mov	 rcx, QWORD PTR [rbx+96]
  0013b	e8 00 00 00 00	 call	 memcpy

; 1183 :     zmemcpy((voidpf)ds->head, (voidpf)ss->head, ds->hash_size * sizeof(Pos));

  00140	44 8b 43 74	 mov	 r8d, DWORD PTR [rbx+116]
  00144	48 8b 56 68	 mov	 rdx, QWORD PTR [rsi+104]
  00148	4d 03 c0	 add	 r8, r8
  0014b	48 8b 4b 68	 mov	 rcx, QWORD PTR [rbx+104]
  0014f	e8 00 00 00 00	 call	 memcpy

; 1184 :     zmemcpy(ds->pending_buf, ss->pending_buf, (uInt)ds->pending_buf_size);

  00154	44 8b 43 18	 mov	 r8d, DWORD PTR [rbx+24]
  00158	48 8b 56 10	 mov	 rdx, QWORD PTR [rsi+16]
  0015c	48 8b 4b 10	 mov	 rcx, QWORD PTR [rbx+16]
  00160	e8 00 00 00 00	 call	 memcpy

; 1185 : 
; 1186 :     ds->pending_out = ds->pending_buf + (ss->pending_out - ss->pending_buf);

  00165	48 8b 46 20	 mov	 rax, QWORD PTR [rsi+32]
  00169	48 2b 46 10	 sub	 rax, QWORD PTR [rsi+16]
  0016d	48 03 43 10	 add	 rax, QWORD PTR [rbx+16]
  00171	48 8b 74 24 38	 mov	 rsi, QWORD PTR [rsp+56]
  00176	48 89 43 20	 mov	 QWORD PTR [rbx+32], rax

; 1187 :     ds->sym_buf = ds->pending_buf + ds->lit_bufsize;

  0017a	8b 83 f0 16 00
	00		 mov	 eax, DWORD PTR [rbx+5872]
  00180	48 03 43 10	 add	 rax, QWORD PTR [rbx+16]
  00184	48 89 83 e8 16
	00 00		 mov	 QWORD PTR [rbx+5864], rax

; 1188 : 
; 1189 :     ds->l_desc.dyn_tree = ds->dyn_ltree;

  0018b	48 8d 83 bc 00
	00 00		 lea	 rax, QWORD PTR [rbx+188]
  00192	48 89 83 40 0b
	00 00		 mov	 QWORD PTR [rbx+2880], rax

; 1190 :     ds->d_desc.dyn_tree = ds->dyn_dtree;

  00199	48 8d 83 b0 09
	00 00		 lea	 rax, QWORD PTR [rbx+2480]
  001a0	48 89 83 58 0b
	00 00		 mov	 QWORD PTR [rbx+2904], rax

; 1191 :     ds->bl_desc.dyn_tree = ds->bl_tree;

  001a7	48 8d 83 a4 0a
	00 00		 lea	 rax, QWORD PTR [rbx+2724]
  001ae	48 89 83 70 0b
	00 00		 mov	 QWORD PTR [rbx+2928], rax

; 1192 : 
; 1193 :     return Z_OK;

  001b5	33 c0		 xor	 eax, eax
  001b7	48 8b 5c 24 30	 mov	 rbx, QWORD PTR [rsp+48]

; 1194 : #endif /* MAXSEG_64K */
; 1195 : }

  001bc	48 83 c4 20	 add	 rsp, 32			; 00000020H
  001c0	5f		 pop	 rdi
  001c1	c3		 ret	 0
$LN6@deflateCop:

; 1176 :         ds->pending_buf == Z_NULL) {
; 1177 :         deflateEnd (dest);

  001c2	48 8b cf	 mov	 rcx, rdi
  001c5	e8 00 00 00 00	 call	 deflateEnd
$LN10@deflateCop:

; 1178 :         return Z_MEM_ERROR;

  001ca	48 8b 5c 24 30	 mov	 rbx, QWORD PTR [rsp+48]
  001cf	b8 fc ff ff ff	 mov	 eax, -4
  001d4	48 8b 74 24 38	 mov	 rsi, QWORD PTR [rsp+56]

; 1194 : #endif /* MAXSEG_64K */
; 1195 : }

  001d9	48 83 c4 20	 add	 rsp, 32			; 00000020H
  001dd	5f		 pop	 rdi
  001de	c3		 ret	 0
$LN3@deflateCop:

; 1157 :         return Z_STREAM_ERROR;

  001df	b8 fe ff ff ff	 mov	 eax, -2

; 1194 : #endif /* MAXSEG_64K */
; 1195 : }

  001e4	48 83 c4 20	 add	 rsp, 32			; 00000020H
  001e8	5f		 pop	 rdi
  001e9	c3		 ret	 0
deflateCopy ENDP
_TEXT	ENDS
; Function compile flags: /Ogtpy
; File G:\1_Projects\BRDF\DisneyBRDF\zlib-1.2.12\deflate.c
;	COMDAT read_buf
_TEXT	SEGMENT
strm$ = 48
buf$ = 56
size$ = 64
read_buf PROC						; COMDAT

; 1208 : {

  00000	48 89 5c 24 10	 mov	 QWORD PTR [rsp+16], rbx
  00005	48 89 74 24 18	 mov	 QWORD PTR [rsp+24], rsi
  0000a	57		 push	 rdi
  0000b	48 83 ec 20	 sub	 rsp, 32			; 00000020H

; 1209 :     unsigned len = strm->avail_in;

  0000f	8b 41 08	 mov	 eax, DWORD PTR [rcx+8]
  00012	48 8b f2	 mov	 rsi, rdx

; 1210 : 
; 1211 :     if (len > size) len = size;

  00015	41 3b c0	 cmp	 eax, r8d
  00018	8b f8		 mov	 edi, eax
  0001a	48 8b d9	 mov	 rbx, rcx
  0001d	41 0f 47 f8	 cmova	 edi, r8d

; 1212 :     if (len == 0) return 0;

  00021	85 ff		 test	 edi, edi
  00023	75 12		 jne	 SHORT $LN3@read_buf
  00025	33 c0		 xor	 eax, eax

; 1229 : }

  00027	48 8b 5c 24 38	 mov	 rbx, QWORD PTR [rsp+56]
  0002c	48 8b 74 24 40	 mov	 rsi, QWORD PTR [rsp+64]
  00031	48 83 c4 20	 add	 rsp, 32			; 00000020H
  00035	5f		 pop	 rdi
  00036	c3		 ret	 0
$LN3@read_buf:

; 1213 : 
; 1214 :     strm->avail_in  -= len;
; 1215 : 
; 1216 :     zmemcpy(buf, strm->next_in, len);

  00037	48 8b 11	 mov	 rdx, QWORD PTR [rcx]
  0003a	2b c7		 sub	 eax, edi
  0003c	89 41 08	 mov	 DWORD PTR [rcx+8], eax
  0003f	48 8b ce	 mov	 rcx, rsi
  00042	48 89 6c 24 30	 mov	 QWORD PTR [rsp+48], rbp
  00047	44 8b c7	 mov	 r8d, edi
  0004a	8b ef		 mov	 ebp, edi
  0004c	e8 00 00 00 00	 call	 memcpy

; 1217 :     if (strm->state->wrap == 1) {

  00051	48 8b 43 28	 mov	 rax, QWORD PTR [rbx+40]
  00055	8b 48 2c	 mov	 ecx, DWORD PTR [rax+44]
  00058	83 f9 01	 cmp	 ecx, 1
  0005b	75 10		 jne	 SHORT $LN4@read_buf

; 1218 :         strm->adler = adler32(strm->adler, buf, len);

  0005d	8b 4b 4c	 mov	 ecx, DWORD PTR [rbx+76]
  00060	44 8b c7	 mov	 r8d, edi
  00063	48 8b d6	 mov	 rdx, rsi
  00066	e8 00 00 00 00	 call	 adler32

; 1219 :     }

  0006b	eb 13		 jmp	 SHORT $LN8@read_buf
$LN4@read_buf:

; 1220 : #ifdef GZIP
; 1221 :     else if (strm->state->wrap == 2) {

  0006d	83 f9 02	 cmp	 ecx, 2
  00070	75 11		 jne	 SHORT $LN6@read_buf

; 1222 :         strm->adler = crc32(strm->adler, buf, len);

  00072	8b 4b 4c	 mov	 ecx, DWORD PTR [rbx+76]
  00075	44 8b c7	 mov	 r8d, edi
  00078	48 8b d6	 mov	 rdx, rsi
  0007b	e8 00 00 00 00	 call	 crc32
$LN8@read_buf:

; 1223 :     }
; 1224 : #endif
; 1225 :     strm->next_in  += len;

  00080	89 43 4c	 mov	 DWORD PTR [rbx+76], eax
$LN6@read_buf:
  00083	48 01 2b	 add	 QWORD PTR [rbx], rbp

; 1226 :     strm->total_in += len;
; 1227 : 
; 1228 :     return len;

  00086	8b c7		 mov	 eax, edi
  00088	01 7b 0c	 add	 DWORD PTR [rbx+12], edi

; 1229 : }

  0008b	48 8b 5c 24 38	 mov	 rbx, QWORD PTR [rsp+56]
  00090	48 8b 6c 24 30	 mov	 rbp, QWORD PTR [rsp+48]
  00095	48 8b 74 24 40	 mov	 rsi, QWORD PTR [rsp+64]
  0009a	48 83 c4 20	 add	 rsp, 32			; 00000020H
  0009e	5f		 pop	 rdi
  0009f	c3		 ret	 0
read_buf ENDP
_TEXT	ENDS
; Function compile flags: /Ogtpy
; File G:\1_Projects\BRDF\DisneyBRDF\zlib-1.2.12\deflate.c
;	COMDAT lm_init
_TEXT	SEGMENT
s$ = 48
lm_init	PROC						; COMDAT

; 1236 : {

  00000	48 89 5c 24 08	 mov	 QWORD PTR [rsp+8], rbx
  00005	57		 push	 rdi
  00006	48 83 ec 20	 sub	 rsp, 32			; 00000020H

; 1237 :     s->window_size = (ulg)2L*s->w_size;

  0000a	8b 41 44	 mov	 eax, DWORD PTR [rcx+68]
  0000d	48 8b d9	 mov	 rbx, rcx

; 1238 : 
; 1239 :     CLEAR_HASH(s);

  00010	8b 51 74	 mov	 edx, DWORD PTR [rcx+116]
  00013	03 c0		 add	 eax, eax
  00015	89 41 58	 mov	 DWORD PTR [rcx+88], eax
  00018	ff ca		 dec	 edx
  0001a	48 8b 41 68	 mov	 rax, QWORD PTR [rcx+104]
  0001e	33 ff		 xor	 edi, edi
  00020	66 89 3c 50	 mov	 WORD PTR [rax+rdx*2], di
  00024	33 d2		 xor	 edx, edx
  00026	44 8b 41 74	 mov	 r8d, DWORD PTR [rcx+116]
  0002a	48 8b 49 68	 mov	 rcx, QWORD PTR [rcx+104]
  0002e	41 ff c8	 dec	 r8d
  00031	4d 03 c0	 add	 r8, r8
  00034	e8 00 00 00 00	 call	 memset

; 1240 : 
; 1241 :     /* Set the default configuration parameters:
; 1242 :      */
; 1243 :     s->max_lazy_match   = configuration_table[s->level].max_lazy;

  00039	48 63 8b ac 00
	00 00		 movsxd	 rcx, DWORD PTR [rbx+172]
  00040	48 8d 15 00 00
	00 00		 lea	 rdx, OFFSET FLAT:configuration_table
  00047	48 03 c9	 add	 rcx, rcx
  0004a	0f b7 44 ca 02	 movzx	 eax, WORD PTR [rdx+rcx*8+2]
  0004f	89 83 a8 00 00
	00		 mov	 DWORD PTR [rbx+168], eax

; 1244 :     s->good_match       = configuration_table[s->level].good_length;

  00055	0f b7 04 ca	 movzx	 eax, WORD PTR [rdx+rcx*8]
  00059	89 83 b4 00 00
	00		 mov	 DWORD PTR [rbx+180], eax

; 1245 :     s->nice_match       = configuration_table[s->level].nice_length;

  0005f	0f b7 44 ca 04	 movzx	 eax, WORD PTR [rdx+rcx*8+4]
  00064	89 83 b8 00 00
	00		 mov	 DWORD PTR [rbx+184], eax

; 1246 :     s->max_chain_length = configuration_table[s->level].max_chain;

  0006a	0f b7 44 ca 06	 movzx	 eax, WORD PTR [rdx+rcx*8+6]
  0006f	89 83 a4 00 00
	00		 mov	 DWORD PTR [rbx+164], eax

; 1247 : 
; 1248 :     s->strstart = 0;
; 1249 :     s->block_start = 0L;
; 1250 :     s->lookahead = 0;
; 1251 :     s->insert = 0;
; 1252 :     s->match_length = s->prev_length = MIN_MATCH-1;
; 1253 :     s->match_available = 0;

  00075	48 89 bb 90 00
	00 00		 mov	 QWORD PTR [rbx+144], rdi
  0007c	89 bb 84 00 00
	00		 mov	 DWORD PTR [rbx+132], edi
  00082	89 bb 9c 00 00
	00		 mov	 DWORD PTR [rbx+156], edi
  00088	89 bb 08 17 00
	00		 mov	 DWORD PTR [rbx+5896], edi
  0008e	c7 83 a0 00 00
	00 02 00 00 00	 mov	 DWORD PTR [rbx+160], 2
  00098	c7 83 88 00 00
	00 02 00 00 00	 mov	 DWORD PTR [rbx+136], 2

; 1254 :     s->ins_h = 0;

  000a2	89 7b 70	 mov	 DWORD PTR [rbx+112], edi

; 1258 : #endif
; 1259 : #endif
; 1260 : }

  000a5	48 8b 5c 24 30	 mov	 rbx, QWORD PTR [rsp+48]
  000aa	48 83 c4 20	 add	 rsp, 32			; 00000020H
  000ae	5f		 pop	 rdi

; 1255 : #ifndef FASTEST
; 1256 : #ifdef ASMV
; 1257 :     match_init(); /* initialize the asm code */

  000af	e9 00 00 00 00	 jmp	 match_init
lm_init	ENDP
_TEXT	ENDS
; Function compile flags: /Ogtpy
; File G:\1_Projects\BRDF\DisneyBRDF\zlib-1.2.12\deflate.c
;	COMDAT fill_window
_TEXT	SEGMENT
s$ = 48
fill_window PROC					; COMDAT

; 1524 : {

  00000	48 89 5c 24 08	 mov	 QWORD PTR [rsp+8], rbx
  00005	48 89 74 24 10	 mov	 QWORD PTR [rsp+16], rsi
  0000a	57		 push	 rdi
  0000b	48 83 ec 20	 sub	 rsp, 32			; 00000020H

; 1525 :     unsigned n;
; 1526 :     unsigned more;    /* Amount of free space at the end of the window. */
; 1527 :     uInt wsize = s->w_size;

  0000f	8b 71 44	 mov	 esi, DWORD PTR [rcx+68]
  00012	48 8b d9	 mov	 rbx, rcx
  00015	66 66 66 0f 1f
	84 00 00 00 00
	00		 npad	 11
$LL4@fill_windo:

; 1528 : 
; 1529 :     Assert(s->lookahead < MIN_LOOKAHEAD, "already enough lookahead");
; 1530 : 
; 1531 :     do {
; 1532 :         more = (unsigned)(s->window_size -(ulg)s->lookahead -(ulg)s->strstart);

  00020	44 8b 83 94 00
	00 00		 mov	 r8d, DWORD PTR [rbx+148]
  00027	8b 7b 58	 mov	 edi, DWORD PTR [rbx+88]
  0002a	2b bb 9c 00 00
	00		 sub	 edi, DWORD PTR [rbx+156]

; 1533 : 
; 1534 :         /* Deal with !@#$% 64K limit: */
; 1535 :         if (sizeof(int) <= 2) {
; 1536 :             if (more == 0 && s->strstart == 0 && s->lookahead == 0) {
; 1537 :                 more = wsize;
; 1538 : 
; 1539 :             } else if (more == (unsigned)(-1)) {
; 1540 :                 /* Very unlikely, but possible on 16 bit machine if
; 1541 :                  * strstart == 0 && lookahead == 1 (input done a byte at time)
; 1542 :                  */
; 1543 :                 more--;
; 1544 :             }
; 1545 :         }
; 1546 : 
; 1547 :         /* If the window is almost full and there is insufficient lookahead,
; 1548 :          * move the upper half to the lower one to make room in the upper half.
; 1549 :          */
; 1550 :         if (s->strstart >= wsize+MAX_DIST(s)) {

  00030	8b 4b 44	 mov	 ecx, DWORD PTR [rbx+68]
  00033	41 2b f8	 sub	 edi, r8d
  00036	81 c1 fa fe ff
	ff		 add	 ecx, -262		; fffffefaH
  0003c	03 ce		 add	 ecx, esi
  0003e	44 3b c1	 cmp	 r8d, ecx
  00041	72 4c		 jb	 SHORT $LN11@fill_windo

; 1551 : 
; 1552 :             zmemcpy(s->window, s->window+wsize, (unsigned)wsize - more);

  00043	48 8b 4b 50	 mov	 rcx, QWORD PTR [rbx+80]
  00047	44 8b c6	 mov	 r8d, esi
  0004a	44 2b c7	 sub	 r8d, edi
  0004d	48 8d 14 31	 lea	 rdx, QWORD PTR [rcx+rsi]
  00051	e8 00 00 00 00	 call	 memcpy

; 1553 :             s->match_start -= wsize;
; 1554 :             s->strstart    -= wsize; /* we now have strstart >= MAX_DIST */

  00056	8b 83 94 00 00
	00		 mov	 eax, DWORD PTR [rbx+148]
  0005c	29 b3 98 00 00
	00		 sub	 DWORD PTR [rbx+152], esi
  00062	2b c6		 sub	 eax, esi

; 1555 :             s->block_start -= (long) wsize;

  00064	29 b3 84 00 00
	00		 sub	 DWORD PTR [rbx+132], esi
  0006a	89 83 94 00 00
	00		 mov	 DWORD PTR [rbx+148], eax

; 1556 :             if (s->insert > s->strstart)

  00070	39 83 08 17 00
	00		 cmp	 DWORD PTR [rbx+5896], eax
  00076	76 06		 jbe	 SHORT $LN12@fill_windo

; 1557 :                 s->insert = s->strstart;

  00078	89 83 08 17 00
	00		 mov	 DWORD PTR [rbx+5896], eax
$LN12@fill_windo:

; 1558 :             slide_hash(s);

  0007e	48 8b cb	 mov	 rcx, rbx
  00081	e8 00 00 00 00	 call	 slide_hash

; 1559 :             more += wsize;

  00086	44 8b 83 94 00
	00 00		 mov	 r8d, DWORD PTR [rbx+148]
  0008d	03 fe		 add	 edi, esi
$LN11@fill_windo:

; 1560 :         }
; 1561 :         if (s->strm->avail_in == 0) break;

  0008f	48 8b 0b	 mov	 rcx, QWORD PTR [rbx]
  00092	83 79 08 00	 cmp	 DWORD PTR [rcx+8], 0
  00096	0f 84 09 01 00
	00		 je	 $LN3@fill_windo

; 1562 : 
; 1563 :         /* If there was no sliding:
; 1564 :          *    strstart <= WSIZE+MAX_DIST-1 && lookahead <= MIN_LOOKAHEAD - 1 &&
; 1565 :          *    more == window_size - lookahead - strstart
; 1566 :          * => more >= window_size - (MIN_LOOKAHEAD-1 + WSIZE + MAX_DIST-1)
; 1567 :          * => more >= window_size - 2*WSIZE + 2
; 1568 :          * In the BIG_MEM or MMAP case (not yet supported),
; 1569 :          *   window_size == input_size + MIN_LOOKAHEAD  &&
; 1570 :          *   strstart + s->lookahead <= input_size => more >= MIN_LOOKAHEAD.
; 1571 :          * Otherwise, window_size == 2*WSIZE so more >= 2.
; 1572 :          * If there was sliding, more >= WSIZE. So in all cases, more >= 2.
; 1573 :          */
; 1574 :         Assert(more >= 2, "more < 2");
; 1575 : 
; 1576 :         n = read_buf(s->strm, s->window + s->strstart + s->lookahead, more);

  0009c	8b 93 9c 00 00
	00		 mov	 edx, DWORD PTR [rbx+156]
  000a2	41 8b c0	 mov	 eax, r8d
  000a5	44 8b c7	 mov	 r8d, edi
  000a8	48 03 d0	 add	 rdx, rax
  000ab	48 03 53 50	 add	 rdx, QWORD PTR [rbx+80]
  000af	e8 00 00 00 00	 call	 read_buf

; 1577 :         s->lookahead += n;

  000b4	44 8b 8b 9c 00
	00 00		 mov	 r9d, DWORD PTR [rbx+156]

; 1578 : 
; 1579 :         /* Initialize the hash value now that we have some input: */
; 1580 :         if (s->lookahead + s->insert >= MIN_MATCH) {

  000bb	44 8b 9b 08 17
	00 00		 mov	 r11d, DWORD PTR [rbx+5896]
  000c2	44 03 c8	 add	 r9d, eax
  000c5	44 89 8b 9c 00
	00 00		 mov	 DWORD PTR [rbx+156], r9d
  000cc	43 8d 04 19	 lea	 eax, DWORD PTR [r9+r11]
  000d0	83 f8 03	 cmp	 eax, 3
  000d3	0f 82 b6 00 00
	00		 jb	 $LN2@fill_windo

; 1581 :             uInt str = s->strstart - s->insert;

  000d9	44 8b 93 94 00
	00 00		 mov	 r10d, DWORD PTR [rbx+148]

; 1582 :             s->ins_h = s->window[str];

  000e0	48 8b 53 50	 mov	 rdx, QWORD PTR [rbx+80]
  000e4	45 2b d3	 sub	 r10d, r11d

; 1583 :             UPDATE_HASH(s, s->ins_h, s->window[str + 1]);

  000e7	8b 8b 80 00 00
	00		 mov	 ecx, DWORD PTR [rbx+128]
  000ed	45 0f b6 04 12	 movzx	 r8d, BYTE PTR [r10+rdx]
  000f2	41 8d 42 01	 lea	 eax, DWORD PTR [r10+1]
  000f6	44 89 43 70	 mov	 DWORD PTR [rbx+112], r8d
  000fa	0f b6 04 10	 movzx	 eax, BYTE PTR [rax+rdx]
  000fe	41 d3 e0	 shl	 r8d, cl
  00101	41 33 c0	 xor	 eax, r8d
  00104	23 43 7c	 and	 eax, DWORD PTR [rbx+124]
  00107	89 43 70	 mov	 DWORD PTR [rbx+112], eax

; 1584 : #if MIN_MATCH != 3
; 1585 :             Call UPDATE_HASH() MIN_MATCH-3 more times
; 1586 : #endif
; 1587 :             while (s->insert) {

  0010a	45 85 db	 test	 r11d, r11d
  0010d	0f 84 7c 00 00
	00		 je	 $LN2@fill_windo

; 1581 :             uInt str = s->strstart - s->insert;

  00113	45 8d 5a 02	 lea	 r11d, DWORD PTR [r10+2]
  00117	66 0f 1f 84 00
	00 00 00 00	 npad	 9
$LL5@fill_windo:

; 1588 :                 UPDATE_HASH(s, s->ins_h, s->window[str + MIN_MATCH-1]);

  00120	48 8b 43 50	 mov	 rax, QWORD PTR [rbx+80]
  00124	8b 8b 80 00 00
	00		 mov	 ecx, DWORD PTR [rbx+128]

; 1589 : #ifndef FASTEST
; 1590 :                 s->prev[str & s->w_mask] = s->head[s->ins_h];

  0012a	48 8b 53 68	 mov	 rdx, QWORD PTR [rbx+104]
  0012e	45 8b c2	 mov	 r8d, r10d
  00131	45 0f b6 0c 03	 movzx	 r9d, BYTE PTR [r11+rax]

; 1591 : #endif
; 1592 :                 s->head[s->ins_h] = (Pos)str;
; 1593 :                 str++;

  00136	45 8d 5b 01	 lea	 r11d, DWORD PTR [r11+1]
  0013a	8b 43 70	 mov	 eax, DWORD PTR [rbx+112]
  0013d	d3 e0		 shl	 eax, cl
  0013f	48 8b 4b 60	 mov	 rcx, QWORD PTR [rbx+96]
  00143	44 33 c8	 xor	 r9d, eax
  00146	44 23 4b 7c	 and	 r9d, DWORD PTR [rbx+124]
  0014a	8b 43 4c	 mov	 eax, DWORD PTR [rbx+76]
  0014d	4c 23 c0	 and	 r8, rax
  00150	44 89 4b 70	 mov	 DWORD PTR [rbx+112], r9d
  00154	42 0f b7 04 4a	 movzx	 eax, WORD PTR [rdx+r9*2]
  00159	66 42 89 04 41	 mov	 WORD PTR [rcx+r8*2], ax
  0015e	8b 4b 70	 mov	 ecx, DWORD PTR [rbx+112]
  00161	48 8b 43 68	 mov	 rax, QWORD PTR [rbx+104]
  00165	66 44 89 14 48	 mov	 WORD PTR [rax+rcx*2], r10w
  0016a	41 ff c2	 inc	 r10d

; 1594 :                 s->insert--;

  0016d	8b 8b 08 17 00
	00		 mov	 ecx, DWORD PTR [rbx+5896]

; 1595 :                 if (s->lookahead + s->insert < MIN_MATCH)

  00173	44 8b 8b 9c 00
	00 00		 mov	 r9d, DWORD PTR [rbx+156]
  0017a	ff c9		 dec	 ecx
  0017c	89 8b 08 17 00
	00		 mov	 DWORD PTR [rbx+5896], ecx
  00182	41 8d 04 09	 lea	 eax, DWORD PTR [r9+rcx]
  00186	83 f8 03	 cmp	 eax, 3
  00189	72 04		 jb	 SHORT $LN2@fill_windo

; 1584 : #if MIN_MATCH != 3
; 1585 :             Call UPDATE_HASH() MIN_MATCH-3 more times
; 1586 : #endif
; 1587 :             while (s->insert) {

  0018b	85 c9		 test	 ecx, ecx
  0018d	75 91		 jne	 SHORT $LL5@fill_windo
$LN2@fill_windo:

; 1596 :                     break;
; 1597 :             }
; 1598 :         }
; 1599 :         /* If the whole input has less than MIN_MATCH bytes, ins_h is garbage,
; 1600 :          * but this is not important since only literal bytes will be emitted.
; 1601 :          */
; 1602 : 
; 1603 :     } while (s->lookahead < MIN_LOOKAHEAD && s->strm->avail_in != 0);

  0018f	41 81 f9 06 01
	00 00		 cmp	 r9d, 262		; 00000106H
  00196	73 0d		 jae	 SHORT $LN3@fill_windo
  00198	48 8b 03	 mov	 rax, QWORD PTR [rbx]
  0019b	83 78 08 00	 cmp	 DWORD PTR [rax+8], 0
  0019f	0f 85 7b fe ff
	ff		 jne	 $LL4@fill_windo
$LN3@fill_windo:

; 1604 : 
; 1605 :     /* If the WIN_INIT bytes after the end of the current data have never been
; 1606 :      * written, then zero those bytes in order to avoid memory check reports of
; 1607 :      * the use of uninitialized (or uninitialised as Julian writes) bytes by
; 1608 :      * the longest match routines.  Update the high water mark for the next
; 1609 :      * time through here.  WIN_INIT is set to MAX_MATCH since the longest match
; 1610 :      * routines allow scanning to strstart + MAX_MATCH, ignoring lookahead.
; 1611 :      */
; 1612 :     if (s->high_water < s->window_size) {

  001a5	8b 8b 14 17 00
	00		 mov	 ecx, DWORD PTR [rbx+5908]
  001ab	8b 7b 58	 mov	 edi, DWORD PTR [rbx+88]
  001ae	3b cf		 cmp	 ecx, edi
  001b0	73 72		 jae	 SHORT $LN21@fill_windo

; 1613 :         ulg curr = s->strstart + (ulg)(s->lookahead);

  001b2	8b b3 94 00 00
	00		 mov	 esi, DWORD PTR [rbx+148]
  001b8	03 b3 9c 00 00
	00		 add	 esi, DWORD PTR [rbx+156]

; 1614 :         ulg init;
; 1615 : 
; 1616 :         if (s->high_water < curr) {

  001be	3b ce		 cmp	 ecx, esi
  001c0	73 35		 jae	 SHORT $LN18@fill_windo

; 1617 :             /* Previous high water mark below current data -- zero WIN_INIT
; 1618 :              * bytes or up to end of window, whichever is less.
; 1619 :              */
; 1620 :             init = s->window_size - curr;

  001c2	2b fe		 sub	 edi, esi

; 1621 :             if (init > WIN_INIT)
; 1622 :                 init = WIN_INIT;
; 1623 :             zmemzero(s->window + curr, (unsigned)init);

  001c4	8b ce		 mov	 ecx, esi
  001c6	b8 02 01 00 00	 mov	 eax, 258		; 00000102H
  001cb	3b f8		 cmp	 edi, eax
  001cd	0f 47 f8	 cmova	 edi, eax
  001d0	48 03 4b 50	 add	 rcx, QWORD PTR [rbx+80]
  001d4	44 8b c7	 mov	 r8d, edi
  001d7	33 d2		 xor	 edx, edx
  001d9	e8 00 00 00 00	 call	 memset

; 1624 :             s->high_water = curr + init;

  001de	8d 04 37	 lea	 eax, DWORD PTR [rdi+rsi]
  001e1	89 83 14 17 00
	00		 mov	 DWORD PTR [rbx+5908], eax

; 1636 :         }
; 1637 :     }
; 1638 : 
; 1639 :     Assert((ulg)s->strstart <= s->window_size - MIN_LOOKAHEAD,
; 1640 :            "not enough room for search");
; 1641 : }

  001e7	48 8b 5c 24 30	 mov	 rbx, QWORD PTR [rsp+48]
  001ec	48 8b 74 24 38	 mov	 rsi, QWORD PTR [rsp+56]
  001f1	48 83 c4 20	 add	 rsp, 32			; 00000020H
  001f5	5f		 pop	 rdi
  001f6	c3		 ret	 0
$LN18@fill_windo:

; 1625 :         }
; 1626 :         else if (s->high_water < (ulg)curr + WIN_INIT) {

  001f7	8d 86 02 01 00
	00		 lea	 eax, DWORD PTR [rsi+258]
  001fd	3b c8		 cmp	 ecx, eax
  001ff	73 23		 jae	 SHORT $LN21@fill_windo

; 1627 :             /* High water mark at or above current data, but below current data
; 1628 :              * plus WIN_INIT -- zero out to current data plus WIN_INIT, or up
; 1629 :              * to end of window, whichever is less.
; 1630 :              */
; 1631 :             init = (ulg)curr + WIN_INIT - s->high_water;
; 1632 :             if (init > s->window_size - s->high_water)

  00201	2b f9		 sub	 edi, ecx
  00203	2b f1		 sub	 esi, ecx
  00205	8d 86 02 01 00
	00		 lea	 eax, DWORD PTR [rsi+258]

; 1633 :                 init = s->window_size - s->high_water;
; 1634 :             zmemzero(s->window + s->high_water, (unsigned)init);

  0020b	3b c7		 cmp	 eax, edi
  0020d	0f 46 f8	 cmovbe	 edi, eax
  00210	48 03 4b 50	 add	 rcx, QWORD PTR [rbx+80]
  00214	44 8b c7	 mov	 r8d, edi
  00217	33 d2		 xor	 edx, edx
  00219	e8 00 00 00 00	 call	 memset

; 1635 :             s->high_water += init;

  0021e	01 bb 14 17 00
	00		 add	 DWORD PTR [rbx+5908], edi
$LN21@fill_windo:

; 1636 :         }
; 1637 :     }
; 1638 : 
; 1639 :     Assert((ulg)s->strstart <= s->window_size - MIN_LOOKAHEAD,
; 1640 :            "not enough room for search");
; 1641 : }

  00224	48 8b 5c 24 30	 mov	 rbx, QWORD PTR [rsp+48]
  00229	48 8b 74 24 38	 mov	 rsi, QWORD PTR [rsp+56]
  0022e	48 83 c4 20	 add	 rsp, 32			; 00000020H
  00232	5f		 pop	 rdi
  00233	c3		 ret	 0
fill_window ENDP
_TEXT	ENDS
; Function compile flags: /Ogtpy
; File G:\1_Projects\BRDF\DisneyBRDF\zlib-1.2.12\deflate.c
;	COMDAT deflate_stored
_TEXT	SEGMENT
tv1402 = 96
s$ = 96
flush$ = 104
used$2$ = 112
deflate_stored PROC					; COMDAT

; 1688 : {

  00000	40 53		 push	 rbx
  00002	56		 push	 rsi
  00003	41 55		 push	 r13
  00005	41 56		 push	 r14
  00007	41 57		 push	 r15
  00009	48 83 ec 30	 sub	 rsp, 48			; 00000030H

; 1689 :     /* Smallest worthy block size when not flushing or finishing. By default
; 1690 :      * this is 32K. This can be as small as 507 bytes for memLevel == 1. For
; 1691 :      * large input and output buffers, the stored block size will be larger.
; 1692 :      */
; 1693 :     unsigned min_block = MIN(s->pending_buf_size - 5, s->w_size);

  0000d	8b 41 18	 mov	 eax, DWORD PTR [rcx+24]
  00010	48 8b d9	 mov	 rbx, rcx
  00013	8b 49 44	 mov	 ecx, DWORD PTR [rcx+68]
  00016	83 c0 fb	 add	 eax, -5			; fffffffbH
  00019	4c 89 64 24 20	 mov	 QWORD PTR [rsp+32], r12

; 1694 : 
; 1695 :     /* Copy as many min_block or larger stored blocks directly to next_out as
; 1696 :      * possible. If flushing, copy the remaining available input to next_out as
; 1697 :      * stored blocks, if there is enough space.
; 1698 :      */
; 1699 :     unsigned len, left, have, last = 0;

  0001e	3b c1		 cmp	 eax, ecx

; 1700 :     unsigned used = s->strm->avail_in;

  00020	48 89 6c 24 68	 mov	 QWORD PTR [rsp+104], rbp
  00025	44 8b fa	 mov	 r15d, edx
  00028	0f 46 c8	 cmovbe	 ecx, eax
  0002b	48 89 7c 24 28	 mov	 QWORD PTR [rsp+40], rdi
  00030	48 8b 03	 mov	 rax, QWORD PTR [rbx]
  00033	45 33 f6	 xor	 r14d, r14d
  00036	44 8b e9	 mov	 r13d, ecx
  00039	44 8b 60 08	 mov	 r12d, DWORD PTR [rax+8]
  0003d	44 89 64 24 70	 mov	 DWORD PTR used$2$[rsp], r12d
  00042	41 bc ff ff 00
	00		 mov	 r12d, 65535		; 0000ffffH
  00048	0f 1f 84 00 00
	00 00 00	 npad	 8
$LL4@deflate_st:

; 1701 :     do {
; 1702 :         /* Set len to the maximum size block that we can copy directly with the
; 1703 :          * available input data and output space. Set left to how much of that
; 1704 :          * would be copied from what's left in the window.
; 1705 :          */
; 1706 :         len = MAX_STORED;       /* maximum deflate stored block length */
; 1707 :         have = (s->bi_valid + 42) >> 3;         /* number of header bytes */

  00050	8b 83 10 17 00
	00		 mov	 eax, DWORD PTR [rbx+5904]

; 1708 :         if (s->strm->avail_out < have)          /* need room for header */

  00056	48 8b 0b	 mov	 rcx, QWORD PTR [rbx]
  00059	83 c0 2a	 add	 eax, 42			; 0000002aH
  0005c	c1 f8 03	 sar	 eax, 3
  0005f	8b 71 18	 mov	 esi, DWORD PTR [rcx+24]
  00062	3b f0		 cmp	 esi, eax
  00064	0f 82 27 01 00
	00		 jb	 $LN3@deflate_st

; 1709 :             break;
; 1710 :             /* maximum stored block length that will fit in avail_out: */
; 1711 :         have = s->strm->avail_out - have;
; 1712 :         left = s->strstart - s->block_start;    /* bytes left in window */

  0006a	8b ab 94 00 00
	00		 mov	 ebp, DWORD PTR [rbx+148]
  00070	2b f0		 sub	 esi, eax
  00072	2b ab 84 00 00
	00		 sub	 ebp, DWORD PTR [rbx+132]

; 1713 :         if (len > (ulg)left + s->strm->avail_in)

  00078	41 8b c4	 mov	 eax, r12d
  0007b	8b 49 08	 mov	 ecx, DWORD PTR [rcx+8]
  0007e	03 cd		 add	 ecx, ebp
  00080	41 3b cc	 cmp	 ecx, r12d
  00083	0f 42 c1	 cmovb	 eax, ecx

; 1714 :             len = left + s->strm->avail_in;     /* limit len to the input */
; 1715 :         if (len > have)
; 1716 :             len = have;                         /* limit len to the output */
; 1717 : 
; 1718 :         /* If the stored block would be less than min_block in length, or if
; 1719 :          * unable to copy all of the available input when flushing, then try
; 1720 :          * copying to the window and the pending buffer instead. Also don't
; 1721 :          * write an empty block when flushing -- deflate() does that.
; 1722 :          */
; 1723 :         if (len < min_block && ((len == 0 && flush != Z_FINISH) ||

  00086	3b c6		 cmp	 eax, esi
  00088	0f 46 f0	 cmovbe	 esi, eax
  0008b	41 3b f5	 cmp	 esi, r13d
  0008e	73 1f		 jae	 SHORT $LN51@deflate_st
  00090	85 f6		 test	 esi, esi
  00092	75 0a		 jne	 SHORT $LN10@deflate_st
  00094	41 83 ff 04	 cmp	 r15d, 4
  00098	0f 85 f3 00 00
	00		 jne	 $LN3@deflate_st
$LN10@deflate_st:
  0009e	45 85 ff	 test	 r15d, r15d
  000a1	0f 84 ea 00 00
	00		 je	 $LN3@deflate_st
  000a7	3b f1		 cmp	 esi, ecx
  000a9	0f 85 e2 00 00
	00		 jne	 $LN3@deflate_st
$LN51@deflate_st:

; 1724 :                                 flush == Z_NO_FLUSH ||
; 1725 :                                 len != left + s->strm->avail_in))
; 1726 :             break;
; 1727 : 
; 1728 :         /* Make a dummy stored block in pending to get the header bytes,
; 1729 :          * including any pending bits. This also updates the debugging counts.
; 1730 :          */
; 1731 :         last = flush == Z_FINISH && len == left + s->strm->avail_in ? 1 : 0;

  000af	41 83 ff 04	 cmp	 r15d, 4
  000b3	75 0a		 jne	 SHORT $LN56@deflate_st
  000b5	3b f1		 cmp	 esi, ecx
  000b7	75 06		 jne	 SHORT $LN56@deflate_st
  000b9	45 8d 77 fd	 lea	 r14d, QWORD PTR [r15-3]
  000bd	eb 03		 jmp	 SHORT $LN36@deflate_st
$LN56@deflate_st:
  000bf	45 33 f6	 xor	 r14d, r14d
$LN36@deflate_st:

; 1732 :         _tr_stored_block(s, (char *)0, 0L, last);

  000c2	45 8b ce	 mov	 r9d, r14d
  000c5	45 33 c0	 xor	 r8d, r8d
  000c8	33 d2		 xor	 edx, edx
  000ca	48 8b cb	 mov	 rcx, rbx
  000cd	e8 00 00 00 00	 call	 _tr_stored_block

; 1733 : 
; 1734 :         /* Replace the lengths in the dummy stored block with len. */
; 1735 :         s->pending_buf[s->pending - 4] = len;

  000d2	8b 4b 28	 mov	 ecx, DWORD PTR [rbx+40]

; 1736 :         s->pending_buf[s->pending - 3] = len >> 8;

  000d5	8b d6		 mov	 edx, esi
  000d7	48 8b 43 10	 mov	 rax, QWORD PTR [rbx+16]
  000db	83 e9 04	 sub	 ecx, 4
  000de	c1 ea 08	 shr	 edx, 8
  000e1	40 88 34 01	 mov	 BYTE PTR [rcx+rax], sil
  000e5	8b 4b 28	 mov	 ecx, DWORD PTR [rbx+40]
  000e8	48 8b 43 10	 mov	 rax, QWORD PTR [rbx+16]
  000ec	83 e9 03	 sub	 ecx, 3
  000ef	88 14 01	 mov	 BYTE PTR [rcx+rax], dl

; 1737 :         s->pending_buf[s->pending - 2] = ~len;

  000f2	40 0f b6 d6	 movzx	 edx, sil
  000f6	8b 4b 28	 mov	 ecx, DWORD PTR [rbx+40]
  000f9	f6 d2		 not	 dl
  000fb	48 8b 43 10	 mov	 rax, QWORD PTR [rbx+16]
  000ff	83 e9 02	 sub	 ecx, 2
  00102	88 14 01	 mov	 BYTE PTR [rcx+rax], dl

; 1738 :         s->pending_buf[s->pending - 1] = ~len >> 8;

  00105	8b d6		 mov	 edx, esi
  00107	8b 4b 28	 mov	 ecx, DWORD PTR [rbx+40]
  0010a	f7 d2		 not	 edx
  0010c	48 8b 43 10	 mov	 rax, QWORD PTR [rbx+16]
  00110	ff c9		 dec	 ecx
  00112	c1 ea 08	 shr	 edx, 8
  00115	88 14 01	 mov	 BYTE PTR [rcx+rax], dl

; 1739 : 
; 1740 :         /* Write the stored block header bytes. */
; 1741 :         flush_pending(s->strm);

  00118	48 8b 0b	 mov	 rcx, QWORD PTR [rbx]
  0011b	e8 00 00 00 00	 call	 flush_pending

; 1742 : 
; 1743 : #ifdef ZLIB_DEBUG
; 1744 :         /* Update debugging counts for the data about to be copied. */
; 1745 :         s->compressed_len += len << 3;
; 1746 :         s->bits_sent += len << 3;
; 1747 : #endif
; 1748 : 
; 1749 :         /* Copy uncompressed bytes from the window to next_out. */
; 1750 :         if (left) {

  00120	85 ed		 test	 ebp, ebp
  00122	74 3c		 je	 SHORT $LN50@deflate_st

; 1751 :             if (left > len)
; 1752 :                 left = len;
; 1753 :             zmemcpy(s->strm->next_out, s->window + s->block_start, left);

  00124	48 8b 0b	 mov	 rcx, QWORD PTR [rbx]
  00127	3b ee		 cmp	 ebp, esi
  00129	48 63 93 84 00
	00 00		 movsxd	 rdx, DWORD PTR [rbx+132]
  00130	0f 47 ee	 cmova	 ebp, esi
  00133	48 03 53 50	 add	 rdx, QWORD PTR [rbx+80]
  00137	44 8b c5	 mov	 r8d, ebp
  0013a	48 8b 49 10	 mov	 rcx, QWORD PTR [rcx+16]
  0013e	8b fd		 mov	 edi, ebp
  00140	e8 00 00 00 00	 call	 memcpy

; 1754 :             s->strm->next_out += left;

  00145	48 8b 03	 mov	 rax, QWORD PTR [rbx]
  00148	48 01 78 10	 add	 QWORD PTR [rax+16], rdi

; 1755 :             s->strm->avail_out -= left;

  0014c	48 8b 03	 mov	 rax, QWORD PTR [rbx]
  0014f	29 68 18	 sub	 DWORD PTR [rax+24], ebp

; 1756 :             s->strm->total_out += left;

  00152	48 8b 03	 mov	 rax, QWORD PTR [rbx]
  00155	01 68 1c	 add	 DWORD PTR [rax+28], ebp

; 1757 :             s->block_start += left;

  00158	01 ab 84 00 00
	00		 add	 DWORD PTR [rbx+132], ebp

; 1758 :             len -= left;

  0015e	2b f5		 sub	 esi, ebp
$LN50@deflate_st:

; 1759 :         }
; 1760 : 
; 1761 :         /* Copy uncompressed bytes directly from next_in to next_out, updating
; 1762 :          * the check value.
; 1763 :          */
; 1764 :         if (len) {

  00160	85 f6		 test	 esi, esi
  00162	74 24		 je	 SHORT $LN2@deflate_st

; 1765 :             read_buf(s->strm, s->strm->next_out, len);

  00164	48 8b 0b	 mov	 rcx, QWORD PTR [rbx]
  00167	44 8b c6	 mov	 r8d, esi
  0016a	48 8b 51 10	 mov	 rdx, QWORD PTR [rcx+16]
  0016e	e8 00 00 00 00	 call	 read_buf

; 1766 :             s->strm->next_out += len;

  00173	48 8b 0b	 mov	 rcx, QWORD PTR [rbx]
  00176	8b c6		 mov	 eax, esi
  00178	48 01 41 10	 add	 QWORD PTR [rcx+16], rax

; 1767 :             s->strm->avail_out -= len;

  0017c	48 8b 03	 mov	 rax, QWORD PTR [rbx]
  0017f	29 70 18	 sub	 DWORD PTR [rax+24], esi

; 1768 :             s->strm->total_out += len;

  00182	48 8b 03	 mov	 rax, QWORD PTR [rbx]
  00185	01 70 1c	 add	 DWORD PTR [rax+28], esi
$LN2@deflate_st:

; 1769 :         }
; 1770 :     } while (last == 0);

  00188	45 85 f6	 test	 r14d, r14d
  0018b	0f 84 bf fe ff
	ff		 je	 $LL4@deflate_st
$LN3@deflate_st:

; 1771 : 
; 1772 :     /* Update the sliding window with the last s->w_size bytes of the copied
; 1773 :      * data, or append all of the copied data to the existing window if less
; 1774 :      * than s->w_size bytes were copied. Also update the number of bytes to
; 1775 :      * insert in the hash tables, in the event that deflateParams() switches to
; 1776 :      * a non-zero compression level.
; 1777 :      */
; 1778 :     used -= s->strm->avail_in;      /* number of input bytes directly copied */

  00191	48 8b 03	 mov	 rax, QWORD PTR [rbx]

; 1779 :     if (used) {

  00194	4c 8d ab 84 00
	00 00		 lea	 r13, QWORD PTR [rbx+132]
  0019b	44 8b 64 24 70	 mov	 r12d, DWORD PTR used$2$[rsp]
  001a0	48 8b 6c 24 68	 mov	 rbp, QWORD PTR [rsp+104]
  001a5	44 2b 60 08	 sub	 r12d, DWORD PTR [rax+8]
  001a9	0f 84 cf 00 00
	00		 je	 $LN57@deflate_st

; 1780 :         /* If any input was used, then no unused input remains in the window,
; 1781 :          * therefore s->block_start == s->strstart.
; 1782 :          */
; 1783 :         if (used >= s->w_size) {    /* supplant the previous history */

  001af	8b 53 44	 mov	 edx, DWORD PTR [rbx+68]
  001b2	44 3b e2	 cmp	 r12d, edx
  001b5	72 33		 jb	 SHORT $LN15@deflate_st

; 1784 :             s->matches = 2;         /* clear hash */
; 1785 :             zmemcpy(s->window, s->strm->next_in - s->w_size, s->w_size);

  001b7	48 8b 4b 50	 mov	 rcx, QWORD PTR [rbx+80]
  001bb	44 8b c2	 mov	 r8d, edx
  001be	c7 83 04 17 00
	00 02 00 00 00	 mov	 DWORD PTR [rbx+5892], 2
  001c8	48 8b 10	 mov	 rdx, QWORD PTR [rax]
  001cb	49 2b d0	 sub	 rdx, r8
  001ce	e8 00 00 00 00	 call	 memcpy

; 1786 :             s->strstart = s->w_size;

  001d3	8b 53 44	 mov	 edx, DWORD PTR [rbx+68]

; 1787 :             s->insert = s->strstart;

  001d6	49 8b c5	 mov	 rax, r13
  001d9	89 93 94 00 00
	00		 mov	 DWORD PTR [rbx+148], edx
  001df	89 93 08 17 00
	00		 mov	 DWORD PTR [rbx+5896], edx

; 1788 :         }

  001e5	e9 92 00 00 00	 jmp	 $LN16@deflate_st
$LN15@deflate_st:

; 1789 :         else {
; 1790 :             if (s->window_size - s->strstart <= used) {

  001ea	8b 8b 94 00 00
	00		 mov	 ecx, DWORD PTR [rbx+148]
  001f0	8b 43 58	 mov	 eax, DWORD PTR [rbx+88]
  001f3	2b c1		 sub	 eax, ecx
  001f5	41 3b c4	 cmp	 eax, r12d
  001f8	77 3f		 ja	 SHORT $LN19@deflate_st

; 1791 :                 /* Slide the window down. */
; 1792 :                 s->strstart -= s->w_size;

  001fa	2b ca		 sub	 ecx, edx
  001fc	44 8b c1	 mov	 r8d, ecx

; 1793 :                 zmemcpy(s->window, s->window + s->w_size, s->strstart);

  001ff	48 8b 4b 50	 mov	 rcx, QWORD PTR [rbx+80]
  00203	48 03 d1	 add	 rdx, rcx
  00206	44 89 83 94 00
	00 00		 mov	 DWORD PTR [rbx+148], r8d
  0020d	e8 00 00 00 00	 call	 memcpy

; 1794 :                 if (s->matches < 2)

  00212	8b 83 04 17 00
	00		 mov	 eax, DWORD PTR [rbx+5892]
  00218	83 f8 02	 cmp	 eax, 2
  0021b	73 08		 jae	 SHORT $LN18@deflate_st

; 1795 :                     s->matches++;   /* add a pending slide_hash() */

  0021d	ff c0		 inc	 eax
  0021f	89 83 04 17 00
	00		 mov	 DWORD PTR [rbx+5892], eax
$LN18@deflate_st:

; 1796 :                 if (s->insert > s->strstart)

  00225	8b 8b 94 00 00
	00		 mov	 ecx, DWORD PTR [rbx+148]
  0022b	39 8b 08 17 00
	00		 cmp	 DWORD PTR [rbx+5896], ecx
  00231	76 06		 jbe	 SHORT $LN19@deflate_st

; 1797 :                     s->insert = s->strstart;

  00233	89 8b 08 17 00
	00		 mov	 DWORD PTR [rbx+5896], ecx
$LN19@deflate_st:

; 1798 :             }
; 1799 :             zmemcpy(s->window + s->strstart, s->strm->next_in - used, used);

  00239	48 8b 03	 mov	 rax, QWORD PTR [rbx]
  0023c	48 03 4b 50	 add	 rcx, QWORD PTR [rbx+80]
  00240	45 8b c4	 mov	 r8d, r12d
  00243	48 8b 10	 mov	 rdx, QWORD PTR [rax]
  00246	49 2b d0	 sub	 rdx, r8
  00249	e8 00 00 00 00	 call	 memcpy

; 1800 :             s->strstart += used;
; 1801 :             s->insert += MIN(used, s->w_size - s->insert);

  0024e	8b 83 08 17 00
	00		 mov	 eax, DWORD PTR [rbx+5896]
  00254	44 01 a3 94 00
	00 00		 add	 DWORD PTR [rbx+148], r12d
  0025b	8b 4b 44	 mov	 ecx, DWORD PTR [rbx+68]
  0025e	8b 93 94 00 00
	00		 mov	 edx, DWORD PTR [rbx+148]
  00264	2b c8		 sub	 ecx, eax
  00266	44 3b e1	 cmp	 r12d, ecx
  00269	41 0f 46 cc	 cmovbe	 ecx, r12d
  0026d	03 c8		 add	 ecx, eax
  0026f	48 8d 83 84 00
	00 00		 lea	 rax, QWORD PTR [rbx+132]
  00276	89 8b 08 17 00
	00		 mov	 DWORD PTR [rbx+5896], ecx
$LN16@deflate_st:

; 1802 :         }
; 1803 :         s->block_start = s->strstart;

  0027c	89 10		 mov	 DWORD PTR [rax], edx
$LN57@deflate_st:

; 1804 :     }
; 1805 :     if (s->high_water < s->strstart)

  0027e	44 8b 83 94 00
	00 00		 mov	 r8d, DWORD PTR [rbx+148]
  00285	4c 8b 64 24 20	 mov	 r12, QWORD PTR [rsp+32]
  0028a	44 39 83 14 17
	00 00		 cmp	 DWORD PTR [rbx+5908], r8d
  00291	73 07		 jae	 SHORT $LN20@deflate_st

; 1806 :         s->high_water = s->strstart;

  00293	44 89 83 14 17
	00 00		 mov	 DWORD PTR [rbx+5908], r8d
$LN20@deflate_st:

; 1807 : 
; 1808 :     /* If the last block was written to next_out, then done. */
; 1809 :     if (last)

  0029a	45 85 f6	 test	 r14d, r14d
  0029d	74 17		 je	 SHORT $LN21@deflate_st

; 1810 :         return finish_done;

  0029f	b8 03 00 00 00	 mov	 eax, 3
  002a4	48 8b 7c 24 28	 mov	 rdi, QWORD PTR [rsp+40]

; 1863 : }

  002a9	48 83 c4 30	 add	 rsp, 48			; 00000030H
  002ad	41 5f		 pop	 r15
  002af	41 5e		 pop	 r14
  002b1	41 5d		 pop	 r13
  002b3	5e		 pop	 rsi
  002b4	5b		 pop	 rbx
  002b5	c3		 ret	 0
$LN21@deflate_st:

; 1811 : 
; 1812 :     /* If flushing and all input has been consumed, then done. */
; 1813 :     if (flush != Z_NO_FLUSH && flush != Z_FINISH &&
; 1814 :         s->strm->avail_in == 0 && (long)s->strstart == s->block_start)

  002b6	41 f7 c7 fb ff
	ff ff		 test	 r15d, -5		; fffffffbH
  002bd	74 26		 je	 SHORT $LN22@deflate_st
  002bf	48 8b 0b	 mov	 rcx, QWORD PTR [rbx]
  002c2	83 79 08 00	 cmp	 DWORD PTR [rcx+8], 0
  002c6	75 1d		 jne	 SHORT $LN22@deflate_st
  002c8	45 3b 45 00	 cmp	 r8d, DWORD PTR [r13]
  002cc	75 17		 jne	 SHORT $LN22@deflate_st

; 1815 :         return block_done;

  002ce	b8 01 00 00 00	 mov	 eax, 1
  002d3	48 8b 7c 24 28	 mov	 rdi, QWORD PTR [rsp+40]

; 1863 : }

  002d8	48 83 c4 30	 add	 rsp, 48			; 00000030H
  002dc	41 5f		 pop	 r15
  002de	41 5e		 pop	 r14
  002e0	41 5d		 pop	 r13
  002e2	5e		 pop	 rsi
  002e3	5b		 pop	 rbx
  002e4	c3		 ret	 0
$LN22@deflate_st:

; 1816 : 
; 1817 :     /* Fill the window with any remaining input. */
; 1818 :     have = s->window_size - s->strstart;
; 1819 :     if (s->strm->avail_in > have && s->block_start >= (long)s->w_size) {

  002e5	48 8b 03	 mov	 rax, QWORD PTR [rbx]
  002e8	49 8b d0	 mov	 rdx, r8
  002eb	8b 7b 58	 mov	 edi, DWORD PTR [rbx+88]
  002ee	41 2b f8	 sub	 edi, r8d
  002f1	39 78 08	 cmp	 DWORD PTR [rax+8], edi
  002f4	76 52		 jbe	 SHORT $LN25@deflate_st
  002f6	8b 43 44	 mov	 eax, DWORD PTR [rbx+68]
  002f9	41 8b 4d 00	 mov	 ecx, DWORD PTR [r13]
  002fd	3b c8		 cmp	 ecx, eax
  002ff	7c 47		 jl	 SHORT $LN25@deflate_st

; 1820 :         /* Slide the window down. */
; 1821 :         s->block_start -= s->w_size;

  00301	2b c8		 sub	 ecx, eax

; 1822 :         s->strstart -= s->w_size;

  00303	44 2b c0	 sub	 r8d, eax
  00306	41 89 4d 00	 mov	 DWORD PTR [r13], ecx

; 1823 :         zmemcpy(s->window, s->window + s->w_size, s->strstart);

  0030a	48 8b 4b 50	 mov	 rcx, QWORD PTR [rbx+80]
  0030e	44 89 83 94 00
	00 00		 mov	 DWORD PTR [rbx+148], r8d
  00315	48 8d 14 01	 lea	 rdx, QWORD PTR [rcx+rax]
  00319	e8 00 00 00 00	 call	 memcpy

; 1824 :         if (s->matches < 2)

  0031e	8b 83 04 17 00
	00		 mov	 eax, DWORD PTR [rbx+5892]
  00324	83 f8 02	 cmp	 eax, 2
  00327	73 08		 jae	 SHORT $LN24@deflate_st

; 1825 :             s->matches++;           /* add a pending slide_hash() */

  00329	ff c0		 inc	 eax
  0032b	89 83 04 17 00
	00		 mov	 DWORD PTR [rbx+5892], eax
$LN24@deflate_st:

; 1826 :         have += s->w_size;          /* more space now */

  00331	03 7b 44	 add	 edi, DWORD PTR [rbx+68]

; 1827 :         if (s->insert > s->strstart)

  00334	8b 93 94 00 00
	00		 mov	 edx, DWORD PTR [rbx+148]
  0033a	39 93 08 17 00
	00		 cmp	 DWORD PTR [rbx+5896], edx
  00340	76 06		 jbe	 SHORT $LN25@deflate_st

; 1828 :             s->insert = s->strstart;

  00342	89 93 08 17 00
	00		 mov	 DWORD PTR [rbx+5896], edx
$LN25@deflate_st:

; 1829 :     }
; 1830 :     if (have > s->strm->avail_in)

  00348	48 8b 0b	 mov	 rcx, QWORD PTR [rbx]
  0034b	8b 71 08	 mov	 esi, DWORD PTR [rcx+8]

; 1831 :         have = s->strm->avail_in;
; 1832 :     if (have) {

  0034e	3b fe		 cmp	 edi, esi
  00350	0f 46 f7	 cmovbe	 esi, edi
  00353	85 f6		 test	 esi, esi
  00355	74 33		 je	 SHORT $LN58@deflate_st

; 1833 :         read_buf(s->strm, s->window + s->strstart, have);

  00357	48 03 53 50	 add	 rdx, QWORD PTR [rbx+80]
  0035b	44 8b c6	 mov	 r8d, esi
  0035e	e8 00 00 00 00	 call	 read_buf

; 1834 :         s->strstart += have;
; 1835 :         s->insert += MIN(have, s->w_size - s->insert);

  00363	8b 8b 08 17 00
	00		 mov	 ecx, DWORD PTR [rbx+5896]
  00369	8b 93 94 00 00
	00		 mov	 edx, DWORD PTR [rbx+148]
  0036f	8b 43 44	 mov	 eax, DWORD PTR [rbx+68]
  00372	03 d6		 add	 edx, esi
  00374	2b c1		 sub	 eax, ecx
  00376	89 93 94 00 00
	00		 mov	 DWORD PTR [rbx+148], edx
  0037c	3b f0		 cmp	 esi, eax
  0037e	0f 47 f0	 cmova	 esi, eax
  00381	8d 04 31	 lea	 eax, DWORD PTR [rcx+rsi]
  00384	89 83 08 17 00
	00		 mov	 DWORD PTR [rbx+5896], eax
$LN58@deflate_st:

; 1836 :     }
; 1837 :     if (s->high_water < s->strstart)

  0038a	39 93 14 17 00
	00		 cmp	 DWORD PTR [rbx+5908], edx
  00390	73 06		 jae	 SHORT $LN28@deflate_st

; 1838 :         s->high_water = s->strstart;

  00392	89 93 14 17 00
	00		 mov	 DWORD PTR [rbx+5908], edx
$LN28@deflate_st:

; 1839 : 
; 1840 :     /* There was not enough avail_out to write a complete worthy or flushed
; 1841 :      * stored block to next_out. Write a stored block to pending instead, if we
; 1842 :      * have enough input for a worthy block, or if flushing and there is enough
; 1843 :      * room for the remaining input as a stored block in the pending buffer.
; 1844 :      */
; 1845 :     have = (s->bi_valid + 42) >> 3;         /* number of header bytes */

  00398	8b 83 10 17 00
	00		 mov	 eax, DWORD PTR [rbx+5904]

; 1846 :         /* maximum stored block length that will fit in pending: */
; 1847 :     have = MIN(s->pending_buf_size - have, MAX_STORED);

  0039e	8b 4b 18	 mov	 ecx, DWORD PTR [rbx+24]
  003a1	83 c0 2a	 add	 eax, 42			; 0000002aH

; 1848 :     min_block = MIN(have, s->w_size);
; 1849 :     left = s->strstart - s->block_start;

  003a4	4d 63 45 00	 movsxd	 r8, DWORD PTR [r13]
  003a8	c1 f8 03	 sar	 eax, 3
  003ab	2b c8		 sub	 ecx, eax
  003ad	b8 ff ff 00 00	 mov	 eax, 65535		; 0000ffffH
  003b2	3b c8		 cmp	 ecx, eax
  003b4	0f 47 c8	 cmova	 ecx, eax
  003b7	8b 43 44	 mov	 eax, DWORD PTR [rbx+68]
  003ba	41 2b d0	 sub	 edx, r8d
  003bd	3b c8		 cmp	 ecx, eax
  003bf	0f 46 c1	 cmovbe	 eax, ecx

; 1850 :     if (left >= min_block ||

  003c2	3b d0		 cmp	 edx, eax
  003c4	73 1c		 jae	 SHORT $LN59@deflate_st
  003c6	85 d2		 test	 edx, edx
  003c8	75 06		 jne	 SHORT $LN31@deflate_st
  003ca	41 83 ff 04	 cmp	 r15d, 4
  003ce	75 56		 jne	 SHORT $LN29@deflate_st
$LN31@deflate_st:
  003d0	45 85 ff	 test	 r15d, r15d
  003d3	74 51		 je	 SHORT $LN29@deflate_st
  003d5	48 8b 03	 mov	 rax, QWORD PTR [rbx]
  003d8	83 78 08 00	 cmp	 DWORD PTR [rax+8], 0
  003dc	75 48		 jne	 SHORT $LN29@deflate_st
  003de	3b d1		 cmp	 edx, ecx
  003e0	77 44		 ja	 SHORT $LN29@deflate_st
$LN59@deflate_st:

; 1851 :         ((left || flush == Z_FINISH) && flush != Z_NO_FLUSH &&
; 1852 :          s->strm->avail_in == 0 && left <= have)) {
; 1853 :         len = MIN(left, have);

  003e2	3b d1		 cmp	 edx, ecx
  003e4	8b fa		 mov	 edi, edx
  003e6	0f 47 f9	 cmova	 edi, ecx

; 1854 :         last = flush == Z_FINISH && s->strm->avail_in == 0 &&

  003e9	41 83 ff 04	 cmp	 r15d, 4
  003ed	75 13		 jne	 SHORT $LN45@deflate_st
  003ef	48 8b 03	 mov	 rax, QWORD PTR [rbx]
  003f2	83 78 08 00	 cmp	 DWORD PTR [rax+8], 0
  003f6	75 0a		 jne	 SHORT $LN45@deflate_st
  003f8	3b fa		 cmp	 edi, edx
  003fa	75 06		 jne	 SHORT $LN45@deflate_st
  003fc	45 8d 77 fd	 lea	 r14d, QWORD PTR [r15-3]
  00400	eb 03		 jmp	 SHORT $LN46@deflate_st
$LN45@deflate_st:
  00402	45 33 f6	 xor	 r14d, r14d
$LN46@deflate_st:

; 1855 :                len == left ? 1 : 0;
; 1856 :         _tr_stored_block(s, (charf *)s->window + s->block_start, len, last);

  00405	49 8b d0	 mov	 rdx, r8
  00408	45 8b ce	 mov	 r9d, r14d
  0040b	48 03 53 50	 add	 rdx, QWORD PTR [rbx+80]
  0040f	44 8b c7	 mov	 r8d, edi
  00412	48 8b cb	 mov	 rcx, rbx
  00415	e8 00 00 00 00	 call	 _tr_stored_block

; 1857 :         s->block_start += len;
; 1858 :         flush_pending(s->strm);

  0041a	48 8b 0b	 mov	 rcx, QWORD PTR [rbx]
  0041d	41 01 7d 00	 add	 DWORD PTR [r13], edi
  00421	e8 00 00 00 00	 call	 flush_pending
$LN29@deflate_st:

; 1859 :     }
; 1860 : 
; 1861 :     /* We've done all we can with the available input and output. */
; 1862 :     return last ? finish_started : need_more;

  00426	48 8b 7c 24 28	 mov	 rdi, QWORD PTR [rsp+40]
  0042b	41 f7 de	 neg	 r14d
  0042e	1b c0		 sbb	 eax, eax
  00430	83 e0 02	 and	 eax, 2

; 1863 : }

  00433	48 83 c4 30	 add	 rsp, 48			; 00000030H
  00437	41 5f		 pop	 r15
  00439	41 5e		 pop	 r14
  0043b	41 5d		 pop	 r13
  0043d	5e		 pop	 rsi
  0043e	5b		 pop	 rbx
  0043f	c3		 ret	 0
deflate_stored ENDP
_TEXT	ENDS
; Function compile flags: /Ogtpy
; File G:\1_Projects\BRDF\DisneyBRDF\zlib-1.2.12\deflate.c
;	COMDAT deflate_fast
_TEXT	SEGMENT
s$ = 80
flush$ = 88
deflate_fast PROC					; COMDAT

; 1875 : {

  00000	48 89 5c 24 08	 mov	 QWORD PTR [rsp+8], rbx
  00005	48 89 6c 24 10	 mov	 QWORD PTR [rsp+16], rbp
  0000a	48 89 74 24 18	 mov	 QWORD PTR [rsp+24], rsi
  0000f	57		 push	 rdi
  00010	41 54		 push	 r12
  00012	41 55		 push	 r13
  00014	41 56		 push	 r14
  00016	41 57		 push	 r15
  00018	48 83 ec 20	 sub	 rsp, 32			; 00000020H
  0001c	8b f2		 mov	 esi, edx
  0001e	4c 8d 25 00 00
	00 00		 lea	 r12, OFFSET FLAT:_length_code
  00025	48 8b d9	 mov	 rbx, rcx
  00028	48 8d 2d 00 00
	00 00		 lea	 rbp, OFFSET FLAT:_dist_code
  0002f	41 bf ff ff 00
	00		 mov	 r15d, 65535		; 0000ffffH
  00035	4c 8d 35 00 01
	00 00		 lea	 r14, OFFSET FLAT:_dist_code+256
  0003c	41 bd 00 01 00
	00		 mov	 r13d, 256		; 00000100H
  00042	33 ff		 xor	 edi, edi
  00044	0f 1f 40 00 0f
	1f 84 00 00 00
	00 00		 npad	 12
$LL2@deflate_fa:

; 1876 :     IPos hash_head;       /* head of the hash chain */
; 1877 :     int bflush;           /* set if current block must be flushed */
; 1878 : 
; 1879 :     for (;;) {
; 1880 :         /* Make sure that we always have enough lookahead, except
; 1881 :          * at the end of the input file. We need MAX_MATCH bytes
; 1882 :          * for the next match, plus MIN_MATCH bytes to insert the
; 1883 :          * string following the next match.
; 1884 :          */
; 1885 :         if (s->lookahead < MIN_LOOKAHEAD) {

  00050	8b 83 9c 00 00
	00		 mov	 eax, DWORD PTR [rbx+156]
  00056	3d 06 01 00 00	 cmp	 eax, 262		; 00000106H
  0005b	73 25		 jae	 SHORT $LN10@deflate_fa

; 1886 :             fill_window(s);

  0005d	48 8b cb	 mov	 rcx, rbx
  00060	e8 00 00 00 00	 call	 fill_window

; 1887 :             if (s->lookahead < MIN_LOOKAHEAD && flush == Z_NO_FLUSH) {

  00065	8b 83 9c 00 00
	00		 mov	 eax, DWORD PTR [rbx+156]
  0006b	3d 06 01 00 00	 cmp	 eax, 262		; 00000106H
  00070	73 08		 jae	 SHORT $LN9@deflate_fa
  00072	85 f6		 test	 esi, esi
  00074	0f 84 ff 02 00
	00		 je	 $LN39@deflate_fa
$LN9@deflate_fa:

; 1888 :                 return need_more;
; 1889 :             }
; 1890 :             if (s->lookahead == 0) break; /* flush the current block */

  0007a	85 c0		 test	 eax, eax
  0007c	0f 84 16 03 00
	00		 je	 $LN38@deflate_fa
$LN10@deflate_fa:

; 1891 :         }
; 1892 : 
; 1893 :         /* Insert the string window[strstart .. strstart+2] in the
; 1894 :          * dictionary, and set hash_head to the head of the hash chain:
; 1895 :          */
; 1896 :         hash_head = NIL;
; 1897 :         if (s->lookahead >= MIN_MATCH) {

  00082	83 f8 03	 cmp	 eax, 3
  00085	0f 82 8c 00 00
	00		 jb	 $LN12@deflate_fa

; 1898 :             INSERT_STRING(s, s->strstart, hash_head);

  0008b	48 8b 43 50	 mov	 rax, QWORD PTR [rbx+80]
  0008f	44 8b 8b 94 00
	00 00		 mov	 r9d, DWORD PTR [rbx+148]
  00096	48 8b 53 68	 mov	 rdx, QWORD PTR [rbx+104]
  0009a	41 8d 49 02	 lea	 ecx, DWORD PTR [r9+2]
  0009e	44 0f b6 04 01	 movzx	 r8d, BYTE PTR [rcx+rax]
  000a3	8b 43 70	 mov	 eax, DWORD PTR [rbx+112]
  000a6	8b 8b 80 00 00
	00		 mov	 ecx, DWORD PTR [rbx+128]
  000ac	d3 e0		 shl	 eax, cl
  000ae	48 8b 4b 60	 mov	 rcx, QWORD PTR [rbx+96]
  000b2	44 33 c0	 xor	 r8d, eax
  000b5	44 23 43 7c	 and	 r8d, DWORD PTR [rbx+124]
  000b9	8b 43 4c	 mov	 eax, DWORD PTR [rbx+76]
  000bc	4c 23 c8	 and	 r9, rax
  000bf	44 89 43 70	 mov	 DWORD PTR [rbx+112], r8d
  000c3	42 0f b7 04 42	 movzx	 eax, WORD PTR [rdx+r8*2]
  000c8	66 42 89 04 49	 mov	 WORD PTR [rcx+r9*2], ax
  000cd	8b 43 4c	 mov	 eax, DWORD PTR [rbx+76]
  000d0	44 8b 83 94 00
	00 00		 mov	 r8d, DWORD PTR [rbx+148]
  000d7	41 8b c8	 mov	 ecx, r8d
  000da	48 23 c8	 and	 rcx, rax
  000dd	48 8b 43 60	 mov	 rax, QWORD PTR [rbx+96]
  000e1	0f b7 14 48	 movzx	 edx, WORD PTR [rax+rcx*2]
  000e5	8b 4b 70	 mov	 ecx, DWORD PTR [rbx+112]
  000e8	48 8b 43 68	 mov	 rax, QWORD PTR [rbx+104]
  000ec	66 44 89 04 48	 mov	 WORD PTR [rax+rcx*2], r8w

; 1899 :         }
; 1900 : 
; 1901 :         /* Find the longest match, discarding those <= prev_length.
; 1902 :          * At this point we have always match_length < MIN_MATCH
; 1903 :          */
; 1904 :         if (hash_head != NIL && s->strstart - hash_head <= MAX_DIST(s)) {

  000f1	85 d2		 test	 edx, edx
  000f3	74 22		 je	 SHORT $LN12@deflate_fa
  000f5	8b 8b 94 00 00
	00		 mov	 ecx, DWORD PTR [rbx+148]
  000fb	8b 43 44	 mov	 eax, DWORD PTR [rbx+68]
  000fe	2b ca		 sub	 ecx, edx
  00100	2d 06 01 00 00	 sub	 eax, 262		; 00000106H
  00105	3b c8		 cmp	 ecx, eax
  00107	77 0e		 ja	 SHORT $LN12@deflate_fa

; 1905 :             /* To simplify the code, we prevent matches with the string
; 1906 :              * of window index 0 (in particular we have to avoid a match
; 1907 :              * of the string with itself at the start of the input file).
; 1908 :              */
; 1909 :             s->match_length = longest_match (s, hash_head);

  00109	48 8b cb	 mov	 rcx, rbx
  0010c	e8 00 00 00 00	 call	 longest_match
  00111	89 83 88 00 00
	00		 mov	 DWORD PTR [rbx+136], eax
$LN12@deflate_fa:

; 1910 :             /* longest_match() sets match_start */
; 1911 :         }
; 1912 :         if (s->match_length >= MIN_MATCH) {

  00117	44 8b 8b 88 00
	00 00		 mov	 r9d, DWORD PTR [rbx+136]
  0011e	41 83 f9 03	 cmp	 r9d, 3
  00122	0f 82 84 01 00
	00		 jb	 $LN13@deflate_fa

; 1913 :             check_match(s, s->strstart, s->match_start, s->match_length);
; 1914 : 
; 1915 :             _tr_tally_dist(s, s->strstart - s->match_start,

  00128	8b 8b f4 16 00
	00		 mov	 ecx, DWORD PTR [rbx+5876]
  0012e	41 80 e9 03	 sub	 r9b, 3
  00132	48 8b 83 e8 16
	00 00		 mov	 rax, QWORD PTR [rbx+5864]
  00139	44 0f b7 83 94
	00 00 00	 movzx	 r8d, WORD PTR [rbx+148]
  00141	66 44 2b 83 98
	00 00 00	 sub	 r8w, WORD PTR [rbx+152]
  00149	44 88 04 01	 mov	 BYTE PTR [rcx+rax], r8b
  0014d	41 0f b7 c8	 movzx	 ecx, r8w
  00151	ff 83 f4 16 00
	00		 inc	 DWORD PTR [rbx+5876]
  00157	66 45 03 c7	 add	 r8w, r15w
  0015b	8b 93 f4 16 00
	00		 mov	 edx, DWORD PTR [rbx+5876]
  00161	48 8b 83 e8 16
	00 00		 mov	 rax, QWORD PTR [rbx+5864]
  00168	66 c1 e9 08	 shr	 cx, 8
  0016c	88 0c 02	 mov	 BYTE PTR [rdx+rax], cl
  0016f	ff 83 f4 16 00
	00		 inc	 DWORD PTR [rbx+5876]
  00175	8b 8b f4 16 00
	00		 mov	 ecx, DWORD PTR [rbx+5876]
  0017b	48 8b 83 e8 16
	00 00		 mov	 rax, QWORD PTR [rbx+5864]
  00182	44 88 0c 01	 mov	 BYTE PTR [rcx+rax], r9b
  00186	ff 83 f4 16 00
	00		 inc	 DWORD PTR [rbx+5876]
  0018c	41 0f b6 c1	 movzx	 eax, r9b
  00190	42 0f b6 04 20	 movzx	 eax, BYTE PTR [rax+r12]
  00195	66 ff 84 83 c0
	04 00 00	 inc	 WORD PTR [rbx+rax*4+1216]
  0019d	41 0f b7 c0	 movzx	 eax, r8w
  001a1	66 45 3b c5	 cmp	 r8w, r13w
  001a5	73 05		 jae	 SHORT $LN24@deflate_fa
  001a7	48 03 c5	 add	 rax, rbp
  001aa	eb 07		 jmp	 SHORT $LN25@deflate_fa
$LN24@deflate_fa:
  001ac	48 c1 e8 07	 shr	 rax, 7
  001b0	49 03 c6	 add	 rax, r14
$LN25@deflate_fa:
  001b3	0f b6 00	 movzx	 eax, BYTE PTR [rax]
  001b6	44 8b d7	 mov	 r10d, edi
  001b9	66 ff 84 83 b0
	09 00 00	 inc	 WORD PTR [rbx+rax*4+2480]
  001c1	8b 83 f8 16 00
	00		 mov	 eax, DWORD PTR [rbx+5880]
  001c7	39 83 f4 16 00
	00		 cmp	 DWORD PTR [rbx+5876], eax

; 1916 :                            s->match_length - MIN_MATCH, bflush);
; 1917 : 
; 1918 :             s->lookahead -= s->match_length;

  001cd	8b 83 9c 00 00
	00		 mov	 eax, DWORD PTR [rbx+156]
  001d3	8b 8b 88 00 00
	00		 mov	 ecx, DWORD PTR [rbx+136]
  001d9	41 0f 94 c2	 sete	 r10b
  001dd	2b c1		 sub	 eax, ecx
  001df	89 83 9c 00 00
	00		 mov	 DWORD PTR [rbx+156], eax

; 1919 : 
; 1920 :             /* Insert new strings in the hash table only if the match length
; 1921 :              * is not too large. This saves time but degrades compression.
; 1922 :              */
; 1923 : #ifndef FASTEST
; 1924 :             if (s->match_length <= s->max_insert_length &&

  001e5	3b 8b a8 00 00
	00		 cmp	 ecx, DWORD PTR [rbx+168]
  001eb	77 7a		 ja	 SHORT $LN54@deflate_fa
  001ed	83 f8 03	 cmp	 eax, 3
  001f0	72 75		 jb	 SHORT $LN54@deflate_fa

; 1925 :                 s->lookahead >= MIN_MATCH) {
; 1926 :                 s->match_length--; /* string at strstart already in table */

  001f2	8d 41 ff	 lea	 eax, DWORD PTR [rcx-1]
  001f5	89 83 88 00 00
	00		 mov	 DWORD PTR [rbx+136], eax
  001fb	0f 1f 44 00 00	 npad	 5
$LL7@deflate_fa:

; 1927 :                 do {
; 1928 :                     s->strstart++;

  00200	ff 83 94 00 00
	00		 inc	 DWORD PTR [rbx+148]

; 1929 :                     INSERT_STRING(s, s->strstart, hash_head);

  00206	48 8b 43 50	 mov	 rax, QWORD PTR [rbx+80]
  0020a	44 8b 8b 94 00
	00 00		 mov	 r9d, DWORD PTR [rbx+148]
  00211	8b 53 4c	 mov	 edx, DWORD PTR [rbx+76]
  00214	49 23 d1	 and	 rdx, r9
  00217	41 8d 49 02	 lea	 ecx, DWORD PTR [r9+2]
  0021b	44 0f b6 04 01	 movzx	 r8d, BYTE PTR [rcx+rax]
  00220	8b 43 70	 mov	 eax, DWORD PTR [rbx+112]
  00223	8b 8b 80 00 00
	00		 mov	 ecx, DWORD PTR [rbx+128]
  00229	d3 e0		 shl	 eax, cl
  0022b	48 8b 4b 60	 mov	 rcx, QWORD PTR [rbx+96]
  0022f	44 33 c0	 xor	 r8d, eax
  00232	44 23 43 7c	 and	 r8d, DWORD PTR [rbx+124]
  00236	48 8b 43 68	 mov	 rax, QWORD PTR [rbx+104]
  0023a	44 89 43 70	 mov	 DWORD PTR [rbx+112], r8d
  0023e	42 0f b7 04 40	 movzx	 eax, WORD PTR [rax+r8*2]
  00243	66 89 04 51	 mov	 WORD PTR [rcx+rdx*2], ax
  00247	8b 53 70	 mov	 edx, DWORD PTR [rbx+112]
  0024a	48 8b 4b 68	 mov	 rcx, QWORD PTR [rbx+104]
  0024e	0f b7 83 94 00
	00 00		 movzx	 eax, WORD PTR [rbx+148]
  00255	66 89 04 51	 mov	 WORD PTR [rcx+rdx*2], ax

; 1930 :                     /* strstart never exceeds WSIZE-MAX_MATCH, so there are
; 1931 :                      * always MIN_MATCH bytes ahead.
; 1932 :                      */
; 1933 :                 } while (--s->match_length != 0);

  00259	83 83 88 00 00
	00 ff		 add	 DWORD PTR [rbx+136], -1	; ffffffffH
  00260	75 9e		 jne	 SHORT $LL7@deflate_fa

; 1934 :                 s->strstart++;
; 1935 :             } else

  00262	e9 b8 00 00 00	 jmp	 $LN57@deflate_fa
$LN54@deflate_fa:

; 1936 : #endif
; 1937 :             {
; 1938 :                 s->strstart += s->match_length;

  00267	44 8b 8b 94 00
	00 00		 mov	 r9d, DWORD PTR [rbx+148]

; 1939 :                 s->match_length = 0;
; 1940 :                 s->ins_h = s->window[s->strstart];

  0026e	48 8b 53 50	 mov	 rdx, QWORD PTR [rbx+80]
  00272	44 03 c9	 add	 r9d, ecx

; 1941 :                 UPDATE_HASH(s, s->ins_h, s->window[s->strstart+1]);

  00275	8b 8b 80 00 00
	00		 mov	 ecx, DWORD PTR [rbx+128]
  0027b	44 89 8b 94 00
	00 00		 mov	 DWORD PTR [rbx+148], r9d
  00282	89 bb 88 00 00
	00		 mov	 DWORD PTR [rbx+136], edi
  00288	45 0f b6 04 11	 movzx	 r8d, BYTE PTR [r9+rdx]
  0028d	41 8d 41 01	 lea	 eax, DWORD PTR [r9+1]
  00291	44 89 43 70	 mov	 DWORD PTR [rbx+112], r8d
  00295	0f b6 04 10	 movzx	 eax, BYTE PTR [rax+rdx]
  00299	41 d3 e0	 shl	 r8d, cl
  0029c	44 33 c0	 xor	 r8d, eax
  0029f	41 8b c1	 mov	 eax, r9d
  002a2	44 23 43 7c	 and	 r8d, DWORD PTR [rbx+124]
  002a6	44 89 43 70	 mov	 DWORD PTR [rbx+112], r8d

; 1942 : #if MIN_MATCH != 3
; 1943 :                 Call UPDATE_HASH() MIN_MATCH-3 more times
; 1944 : #endif
; 1945 :                 /* If lookahead < MIN_MATCH, ins_h is garbage, but it does not
; 1946 :                  * matter since it will be recomputed at next deflate call.
; 1947 :                  */
; 1948 :             }
; 1949 :         } else {

  002aa	eb 7f		 jmp	 SHORT $LN14@deflate_fa
$LN13@deflate_fa:

; 1950 :             /* No match, output a literal byte */
; 1951 :             Tracevv((stderr,"%c", s->window[s->strstart]));
; 1952 :             _tr_tally_lit (s, s->window[s->strstart], bflush);

  002ac	8b 8b 94 00 00
	00		 mov	 ecx, DWORD PTR [rbx+148]
  002b2	44 8b d7	 mov	 r10d, edi
  002b5	48 8b 43 50	 mov	 rax, QWORD PTR [rbx+80]
  002b9	0f b6 14 01	 movzx	 edx, BYTE PTR [rcx+rax]
  002bd	8b 8b f4 16 00
	00		 mov	 ecx, DWORD PTR [rbx+5876]
  002c3	48 8b 83 e8 16
	00 00		 mov	 rax, QWORD PTR [rbx+5864]
  002ca	40 88 3c 01	 mov	 BYTE PTR [rcx+rax], dil
  002ce	ff 83 f4 16 00
	00		 inc	 DWORD PTR [rbx+5876]
  002d4	8b 8b f4 16 00
	00		 mov	 ecx, DWORD PTR [rbx+5876]
  002da	48 8b 83 e8 16
	00 00		 mov	 rax, QWORD PTR [rbx+5864]
  002e1	40 88 3c 01	 mov	 BYTE PTR [rcx+rax], dil
  002e5	ff 83 f4 16 00
	00		 inc	 DWORD PTR [rbx+5876]
  002eb	8b 8b f4 16 00
	00		 mov	 ecx, DWORD PTR [rbx+5876]
  002f1	48 8b 83 e8 16
	00 00		 mov	 rax, QWORD PTR [rbx+5864]
  002f8	88 14 01	 mov	 BYTE PTR [rcx+rax], dl
  002fb	ff 83 f4 16 00
	00		 inc	 DWORD PTR [rbx+5876]
  00301	66 ff 84 93 bc
	00 00 00	 inc	 WORD PTR [rbx+rdx*4+188]
  00309	8b 83 f8 16 00
	00		 mov	 eax, DWORD PTR [rbx+5880]
  0030f	39 83 f4 16 00
	00		 cmp	 DWORD PTR [rbx+5876], eax
  00315	41 0f 94 c2	 sete	 r10b

; 1953 :             s->lookahead--;

  00319	ff 8b 9c 00 00
	00		 dec	 DWORD PTR [rbx+156]
$LN57@deflate_fa:

; 1954 :             s->strstart++;
; 1955 :         }
; 1956 :         if (bflush) FLUSH_BLOCK(s, 0);

  0031f	ff 83 94 00 00
	00		 inc	 DWORD PTR [rbx+148]
  00325	8b 83 94 00 00
	00		 mov	 eax, DWORD PTR [rbx+148]
$LN14@deflate_fa:
  0032b	45 85 d2	 test	 r10d, r10d
  0032e	0f 84 1c fd ff
	ff		 je	 $LL2@deflate_fa
  00334	8b 8b 84 00 00
	00		 mov	 ecx, DWORD PTR [rbx+132]
  0033a	85 c9		 test	 ecx, ecx
  0033c	78 08		 js	 SHORT $LN26@deflate_fa
  0033e	8b d1		 mov	 edx, ecx
  00340	48 03 53 50	 add	 rdx, QWORD PTR [rbx+80]
  00344	eb 03		 jmp	 SHORT $LN27@deflate_fa
$LN26@deflate_fa:
  00346	48 8b d7	 mov	 rdx, rdi
$LN27@deflate_fa:
  00349	2b c1		 sub	 eax, ecx
  0034b	45 33 c9	 xor	 r9d, r9d
  0034e	44 8b c0	 mov	 r8d, eax
  00351	48 8b cb	 mov	 rcx, rbx
  00354	e8 00 00 00 00	 call	 _tr_flush_block
  00359	8b 83 94 00 00
	00		 mov	 eax, DWORD PTR [rbx+148]
  0035f	48 8b 0b	 mov	 rcx, QWORD PTR [rbx]
  00362	89 83 84 00 00
	00		 mov	 DWORD PTR [rbx+132], eax
  00368	e8 00 00 00 00	 call	 flush_pending
  0036d	48 8b 03	 mov	 rax, QWORD PTR [rbx]
  00370	39 78 18	 cmp	 DWORD PTR [rax+24], edi
  00373	0f 85 d7 fc ff
	ff		 jne	 $LL2@deflate_fa
$LN39@deflate_fa:
  00379	33 c0		 xor	 eax, eax
$LN1@deflate_fa:

; 1966 : }

  0037b	48 8b 5c 24 50	 mov	 rbx, QWORD PTR [rsp+80]
  00380	48 8b 6c 24 58	 mov	 rbp, QWORD PTR [rsp+88]
  00385	48 8b 74 24 60	 mov	 rsi, QWORD PTR [rsp+96]
  0038a	48 83 c4 20	 add	 rsp, 32			; 00000020H
  0038e	41 5f		 pop	 r15
  00390	41 5e		 pop	 r14
  00392	41 5d		 pop	 r13
  00394	41 5c		 pop	 r12
  00396	5f		 pop	 rdi
  00397	c3		 ret	 0
$LN38@deflate_fa:

; 1957 :     }
; 1958 :     s->insert = s->strstart < MIN_MATCH-1 ? s->strstart : MIN_MATCH-1;

  00398	8b 8b 94 00 00
	00		 mov	 ecx, DWORD PTR [rbx+148]
  0039e	b8 02 00 00 00	 mov	 eax, 2
  003a3	3b c8		 cmp	 ecx, eax
  003a5	0f 42 c1	 cmovb	 eax, ecx
  003a8	89 83 08 17 00
	00		 mov	 DWORD PTR [rbx+5896], eax

; 1959 :     if (flush == Z_FINISH) {

  003ae	83 fe 04	 cmp	 esi, 4
  003b1	75 4e		 jne	 SHORT $LN19@deflate_fa

; 1960 :         FLUSH_BLOCK(s, 1);

  003b3	8b 83 84 00 00
	00		 mov	 eax, DWORD PTR [rbx+132]
  003b9	85 c0		 test	 eax, eax
  003bb	78 08		 js	 SHORT $LN30@deflate_fa
  003bd	8b d0		 mov	 edx, eax
  003bf	48 03 53 50	 add	 rdx, QWORD PTR [rbx+80]
  003c3	eb 03		 jmp	 SHORT $LN31@deflate_fa
$LN30@deflate_fa:
  003c5	48 8b d7	 mov	 rdx, rdi
$LN31@deflate_fa:
  003c8	2b c8		 sub	 ecx, eax
  003ca	41 b9 01 00 00
	00		 mov	 r9d, 1
  003d0	44 8b c1	 mov	 r8d, ecx
  003d3	48 8b cb	 mov	 rcx, rbx
  003d6	e8 00 00 00 00	 call	 _tr_flush_block
  003db	8b 83 94 00 00
	00		 mov	 eax, DWORD PTR [rbx+148]
  003e1	48 8b 0b	 mov	 rcx, QWORD PTR [rbx]
  003e4	89 83 84 00 00
	00		 mov	 DWORD PTR [rbx+132], eax
  003ea	e8 00 00 00 00	 call	 flush_pending
  003ef	48 8b 03	 mov	 rax, QWORD PTR [rbx]
  003f2	39 78 18	 cmp	 DWORD PTR [rax+24], edi
  003f5	40 0f 95 c7	 setne	 dil
  003f9	8d 47 02	 lea	 eax, DWORD PTR [rdi+2]
  003fc	e9 7a ff ff ff	 jmp	 $LN1@deflate_fa
$LN19@deflate_fa:

; 1961 :         return finish_done;
; 1962 :     }
; 1963 :     if (s->sym_next)

  00401	39 bb f4 16 00
	00		 cmp	 DWORD PTR [rbx+5876], edi
  00407	74 44		 je	 SHORT $LN22@deflate_fa

; 1964 :         FLUSH_BLOCK(s, 0);

  00409	8b 83 84 00 00
	00		 mov	 eax, DWORD PTR [rbx+132]
  0040f	85 c0		 test	 eax, eax
  00411	78 06		 js	 SHORT $LN32@deflate_fa
  00413	8b f8		 mov	 edi, eax
  00415	48 03 7b 50	 add	 rdi, QWORD PTR [rbx+80]
$LN32@deflate_fa:
  00419	2b c8		 sub	 ecx, eax
  0041b	45 33 c9	 xor	 r9d, r9d
  0041e	44 8b c1	 mov	 r8d, ecx
  00421	48 8b d7	 mov	 rdx, rdi
  00424	48 8b cb	 mov	 rcx, rbx
  00427	e8 00 00 00 00	 call	 _tr_flush_block
  0042c	8b 83 94 00 00
	00		 mov	 eax, DWORD PTR [rbx+148]
  00432	48 8b 0b	 mov	 rcx, QWORD PTR [rbx]
  00435	89 83 84 00 00
	00		 mov	 DWORD PTR [rbx+132], eax
  0043b	e8 00 00 00 00	 call	 flush_pending
  00440	48 8b 03	 mov	 rax, QWORD PTR [rbx]
  00443	83 78 18 00	 cmp	 DWORD PTR [rax+24], 0
  00447	0f 84 2c ff ff
	ff		 je	 $LN39@deflate_fa
$LN22@deflate_fa:

; 1965 :     return block_done;

  0044d	b8 01 00 00 00	 mov	 eax, 1
  00452	e9 24 ff ff ff	 jmp	 $LN1@deflate_fa
deflate_fast ENDP
_TEXT	ENDS
; Function compile flags: /Ogtpy
; File G:\1_Projects\BRDF\DisneyBRDF\zlib-1.2.12\deflate.c
;	COMDAT deflate_slow
_TEXT	SEGMENT
s$ = 80
flush$ = 88
deflate_slow PROC					; COMDAT

; 1977 : {

  00000	48 89 5c 24 08	 mov	 QWORD PTR [rsp+8], rbx
  00005	48 89 6c 24 10	 mov	 QWORD PTR [rsp+16], rbp
  0000a	48 89 74 24 18	 mov	 QWORD PTR [rsp+24], rsi
  0000f	57		 push	 rdi
  00010	41 54		 push	 r12
  00012	41 55		 push	 r13
  00014	41 56		 push	 r14
  00016	41 57		 push	 r15
  00018	48 83 ec 20	 sub	 rsp, 32			; 00000020H
  0001c	33 f6		 xor	 esi, esi
  0001e	4c 8d 25 00 00
	00 00		 lea	 r12, OFFSET FLAT:_dist_code
  00025	44 8b fa	 mov	 r15d, edx
  00028	4c 8d 2d 00 01
	00 00		 lea	 r13, OFFSET FLAT:_dist_code+256
  0002f	48 8b d9	 mov	 rbx, rcx
  00032	bd ff ff 00 00	 mov	 ebp, 65535		; 0000ffffH
  00037	8d 7e 02	 lea	 edi, QWORD PTR [rsi+2]
$LN76@deflate_sl:

; 1978 :     IPos hash_head;          /* head of hash chain */
; 1979 :     int bflush;              /* set if current block must be flushed */
; 1980 : 
; 1981 :     /* Process the input block. */
; 1982 :     for (;;) {
; 1983 :         /* Make sure that we always have enough lookahead, except
; 1984 :          * at the end of the input file. We need MAX_MATCH bytes
; 1985 :          * for the next match, plus MIN_MATCH bytes to insert the
; 1986 :          * string following the next match.
; 1987 :          */
; 1988 :         if (s->lookahead < MIN_LOOKAHEAD) {

  0003a	4c 8d 35 00 00
	00 00		 lea	 r14, OFFSET FLAT:_length_code
$LL2@deflate_sl:
  00041	8b 83 9c 00 00
	00		 mov	 eax, DWORD PTR [rbx+156]
  00047	3d 06 01 00 00	 cmp	 eax, 262		; 00000106H
  0004c	73 26		 jae	 SHORT $LN10@deflate_sl

; 1989 :             fill_window(s);

  0004e	48 8b cb	 mov	 rcx, rbx
  00051	e8 00 00 00 00	 call	 fill_window

; 1990 :             if (s->lookahead < MIN_LOOKAHEAD && flush == Z_NO_FLUSH) {

  00056	8b 83 9c 00 00
	00		 mov	 eax, DWORD PTR [rbx+156]
  0005c	3d 06 01 00 00	 cmp	 eax, 262		; 00000106H
  00061	73 09		 jae	 SHORT $LN9@deflate_sl
  00063	45 85 ff	 test	 r15d, r15d
  00066	0f 84 cd 02 00
	00		 je	 $LN48@deflate_sl
$LN9@deflate_sl:

; 1991 :                 return need_more;
; 1992 :             }
; 1993 :             if (s->lookahead == 0) break; /* flush the current block */

  0006c	85 c0		 test	 eax, eax
  0006e	0f 84 d3 03 00
	00		 je	 $LN46@deflate_sl
$LN10@deflate_sl:

; 1994 :         }
; 1995 : 
; 1996 :         /* Insert the string window[strstart .. strstart+2] in the
; 1997 :          * dictionary, and set hash_head to the head of the hash chain:
; 1998 :          */
; 1999 :         hash_head = NIL;

  00074	44 8b ce	 mov	 r9d, esi

; 2000 :         if (s->lookahead >= MIN_MATCH) {

  00077	83 f8 03	 cmp	 eax, 3
  0007a	72 61		 jb	 SHORT $LN11@deflate_sl

; 2001 :             INSERT_STRING(s, s->strstart, hash_head);

  0007c	44 8b 8b 94 00
	00 00		 mov	 r9d, DWORD PTR [rbx+148]
  00083	48 8b 43 50	 mov	 rax, QWORD PTR [rbx+80]
  00087	8b 53 4c	 mov	 edx, DWORD PTR [rbx+76]
  0008a	49 23 d1	 and	 rdx, r9
  0008d	41 8d 49 02	 lea	 ecx, DWORD PTR [r9+2]
  00091	44 0f b6 04 01	 movzx	 r8d, BYTE PTR [rcx+rax]
  00096	8b 43 70	 mov	 eax, DWORD PTR [rbx+112]
  00099	8b 8b 80 00 00
	00		 mov	 ecx, DWORD PTR [rbx+128]
  0009f	d3 e0		 shl	 eax, cl
  000a1	48 8b 4b 60	 mov	 rcx, QWORD PTR [rbx+96]
  000a5	44 33 c0	 xor	 r8d, eax
  000a8	44 23 43 7c	 and	 r8d, DWORD PTR [rbx+124]
  000ac	48 8b 43 68	 mov	 rax, QWORD PTR [rbx+104]
  000b0	44 89 43 70	 mov	 DWORD PTR [rbx+112], r8d
  000b4	42 0f b7 04 40	 movzx	 eax, WORD PTR [rax+r8*2]
  000b9	66 89 04 51	 mov	 WORD PTR [rcx+rdx*2], ax
  000bd	48 8b 43 60	 mov	 rax, QWORD PTR [rbx+96]
  000c1	8b 93 94 00 00
	00		 mov	 edx, DWORD PTR [rbx+148]
  000c7	8b 4b 4c	 mov	 ecx, DWORD PTR [rbx+76]
  000ca	48 23 ca	 and	 rcx, rdx
  000cd	44 0f b7 0c 48	 movzx	 r9d, WORD PTR [rax+rcx*2]
  000d2	8b 4b 70	 mov	 ecx, DWORD PTR [rbx+112]
  000d5	48 8b 43 68	 mov	 rax, QWORD PTR [rbx+104]
  000d9	66 89 14 48	 mov	 WORD PTR [rax+rcx*2], dx
$LN11@deflate_sl:

; 2002 :         }
; 2003 : 
; 2004 :         /* Find the longest match, discarding those <= prev_length.
; 2005 :          */
; 2006 :         s->prev_length = s->match_length, s->prev_match = s->match_start;

  000dd	8b 8b 88 00 00
	00		 mov	 ecx, DWORD PTR [rbx+136]

; 2007 :         s->match_length = MIN_MATCH-1;

  000e3	44 8b c7	 mov	 r8d, edi
  000e6	8b 83 98 00 00
	00		 mov	 eax, DWORD PTR [rbx+152]
  000ec	89 8b a0 00 00
	00		 mov	 DWORD PTR [rbx+160], ecx
  000f2	89 83 8c 00 00
	00		 mov	 DWORD PTR [rbx+140], eax
  000f8	89 bb 88 00 00
	00		 mov	 DWORD PTR [rbx+136], edi

; 2008 : 
; 2009 :         if (hash_head != NIL && s->prev_length < s->max_lazy_match &&

  000fe	45 85 c9	 test	 r9d, r9d
  00101	74 60		 je	 SHORT $LN13@deflate_sl
  00103	3b 8b a8 00 00
	00		 cmp	 ecx, DWORD PTR [rbx+168]
  00109	73 58		 jae	 SHORT $LN13@deflate_sl
  0010b	8b 8b 94 00 00
	00		 mov	 ecx, DWORD PTR [rbx+148]
  00111	8b 43 44	 mov	 eax, DWORD PTR [rbx+68]
  00114	41 2b c9	 sub	 ecx, r9d
  00117	2d 06 01 00 00	 sub	 eax, 262		; 00000106H
  0011c	3b c8		 cmp	 ecx, eax
  0011e	77 43		 ja	 SHORT $LN13@deflate_sl

; 2010 :             s->strstart - hash_head <= MAX_DIST(s)) {
; 2011 :             /* To simplify the code, we prevent matches with the string
; 2012 :              * of window index 0 (in particular we have to avoid a match
; 2013 :              * of the string with itself at the start of the input file).
; 2014 :              */
; 2015 :             s->match_length = longest_match (s, hash_head);

  00120	41 8b d1	 mov	 edx, r9d
  00123	48 8b cb	 mov	 rcx, rbx
  00126	e8 00 00 00 00	 call	 longest_match
  0012b	89 83 88 00 00
	00		 mov	 DWORD PTR [rbx+136], eax

; 2016 :             /* longest_match() sets match_start */
; 2017 : 
; 2018 :             if (s->match_length <= 5 && (s->strategy == Z_FILTERED

  00131	44 8b c0	 mov	 r8d, eax
  00134	83 f8 05	 cmp	 eax, 5
  00137	77 2a		 ja	 SHORT $LN13@deflate_sl
  00139	83 bb b0 00 00
	00 01		 cmp	 DWORD PTR [rbx+176], 1
  00140	74 18		 je	 SHORT $LN14@deflate_sl
  00142	83 f8 03	 cmp	 eax, 3
  00145	75 1c		 jne	 SHORT $LN13@deflate_sl
  00147	8b 83 94 00 00
	00		 mov	 eax, DWORD PTR [rbx+148]
  0014d	2b 83 98 00 00
	00		 sub	 eax, DWORD PTR [rbx+152]
  00153	3d 00 10 00 00	 cmp	 eax, 4096		; 00001000H
  00158	76 09		 jbe	 SHORT $LN13@deflate_sl
$LN14@deflate_sl:

; 2019 : #if TOO_FAR <= 32767
; 2020 :                 || (s->match_length == MIN_MATCH &&
; 2021 :                     s->strstart - s->match_start > TOO_FAR)
; 2022 : #endif
; 2023 :                 )) {
; 2024 : 
; 2025 :                 /* If prev_match is also MIN_MATCH, match_start is garbage
; 2026 :                  * but we will ignore the current match anyway.
; 2027 :                  */
; 2028 :                 s->match_length = MIN_MATCH-1;

  0015a	89 bb 88 00 00
	00		 mov	 DWORD PTR [rbx+136], edi
  00160	44 8b c7	 mov	 r8d, edi
$LN13@deflate_sl:

; 2029 :             }
; 2030 :         }
; 2031 :         /* If there was a match at the previous step and the current
; 2032 :          * match is not better, output the previous match:
; 2033 :          */
; 2034 :         if (s->prev_length >= MIN_MATCH && s->match_length <= s->prev_length) {

  00163	44 8b 8b a0 00
	00 00		 mov	 r9d, DWORD PTR [rbx+160]
  0016a	41 83 f9 03	 cmp	 r9d, 3
  0016e	0f 82 e4 01 00
	00		 jb	 $LN63@deflate_sl
  00174	45 3b c1	 cmp	 r8d, r9d
  00177	0f 87 db 01 00
	00		 ja	 $LN63@deflate_sl

; 2035 :             uInt max_insert = s->strstart + s->lookahead - MIN_MATCH;
; 2036 :             /* Do not insert strings in hash table beyond this. */
; 2037 : 
; 2038 :             check_match(s, s->strstart-1, s->prev_match, s->prev_length);
; 2039 : 
; 2040 :             _tr_tally_dist(s, s->strstart -1 - s->prev_match,

  0017d	8b 8b f4 16 00
	00		 mov	 ecx, DWORD PTR [rbx+5876]
  00183	41 80 e9 03	 sub	 r9b, 3
  00187	44 8b 83 94 00
	00 00		 mov	 r8d, DWORD PTR [rbx+148]
  0018e	44 8b 9b 9c 00
	00 00		 mov	 r11d, DWORD PTR [rbx+156]
  00195	48 8b 83 e8 16
	00 00		 mov	 rax, QWORD PTR [rbx+5864]
  0019c	41 83 c3 fd	 add	 r11d, -3		; fffffffdH
  001a0	45 03 d8	 add	 r11d, r8d
  001a3	66 44 2b 83 8c
	00 00 00	 sub	 r8w, WORD PTR [rbx+140]
  001ab	66 41 ff c8	 dec	 r8w
  001af	44 88 04 01	 mov	 BYTE PTR [rcx+rax], r8b
  001b3	41 0f b7 c8	 movzx	 ecx, r8w
  001b7	ff 83 f4 16 00
	00		 inc	 DWORD PTR [rbx+5876]
  001bd	66 44 03 c5	 add	 r8w, bp
  001c1	8b 93 f4 16 00
	00		 mov	 edx, DWORD PTR [rbx+5876]
  001c7	48 8b 83 e8 16
	00 00		 mov	 rax, QWORD PTR [rbx+5864]
  001ce	66 c1 e9 08	 shr	 cx, 8
  001d2	88 0c 02	 mov	 BYTE PTR [rdx+rax], cl
  001d5	ff 83 f4 16 00
	00		 inc	 DWORD PTR [rbx+5876]
  001db	8b 8b f4 16 00
	00		 mov	 ecx, DWORD PTR [rbx+5876]
  001e1	48 8b 83 e8 16
	00 00		 mov	 rax, QWORD PTR [rbx+5864]
  001e8	44 88 0c 01	 mov	 BYTE PTR [rcx+rax], r9b
  001ec	ff 83 f4 16 00
	00		 inc	 DWORD PTR [rbx+5876]
  001f2	41 0f b6 c1	 movzx	 eax, r9b
  001f6	42 0f b6 04 30	 movzx	 eax, BYTE PTR [rax+r14]
  001fb	66 ff 84 83 c0
	04 00 00	 inc	 WORD PTR [rbx+rax*4+1216]
  00203	b8 00 01 00 00	 mov	 eax, 256		; 00000100H
  00208	66 44 3b c0	 cmp	 r8w, ax
  0020c	41 0f b7 c0	 movzx	 eax, r8w
  00210	73 05		 jae	 SHORT $LN30@deflate_sl
  00212	49 03 c4	 add	 rax, r12
  00215	eb 07		 jmp	 SHORT $LN31@deflate_sl
$LN30@deflate_sl:
  00217	48 c1 e8 07	 shr	 rax, 7
  0021b	49 03 c5	 add	 rax, r13
$LN31@deflate_sl:
  0021e	0f b6 00	 movzx	 eax, BYTE PTR [rax]
  00221	66 ff 84 83 b0
	09 00 00	 inc	 WORD PTR [rbx+rax*4+2480]

; 2041 :                            s->prev_length - MIN_MATCH, bflush);
; 2042 : 
; 2043 :             /* Insert in hash table all strings up to the end of the match.
; 2044 :              * strstart-1 and strstart are already inserted. If there is not
; 2045 :              * enough lookahead, the last two strings are not inserted in
; 2046 :              * the hash table.
; 2047 :              */
; 2048 :             s->lookahead -= s->prev_length-1;

  00229	b8 01 00 00 00	 mov	 eax, 1
  0022e	8b 8b a0 00 00
	00		 mov	 ecx, DWORD PTR [rbx+160]
  00234	2b c1		 sub	 eax, ecx
  00236	01 83 9c 00 00
	00		 add	 DWORD PTR [rbx+156], eax
  0023c	8b ab f4 16 00
	00		 mov	 ebp, DWORD PTR [rbx+5876]
  00242	44 8b b3 f8 16
	00 00		 mov	 r14d, DWORD PTR [rbx+5880]

; 2049 :             s->prev_length -= 2;

  00249	8d 41 fe	 lea	 eax, DWORD PTR [rcx-2]
  0024c	89 83 a0 00 00
	00		 mov	 DWORD PTR [rbx+160], eax
$LL7@deflate_sl:

; 2050 :             do {
; 2051 :                 if (++s->strstart <= max_insert) {

  00252	44 8b 93 94 00
	00 00		 mov	 r10d, DWORD PTR [rbx+148]
  00259	41 ff c2	 inc	 r10d
  0025c	44 89 93 94 00
	00 00		 mov	 DWORD PTR [rbx+148], r10d
  00263	45 3b d3	 cmp	 r10d, r11d
  00266	77 59		 ja	 SHORT $LN5@deflate_sl

; 2052 :                     INSERT_STRING(s, s->strstart, hash_head);

  00268	8b 8b 80 00 00
	00		 mov	 ecx, DWORD PTR [rbx+128]
  0026e	44 8b 4b 70	 mov	 r9d, DWORD PTR [rbx+112]
  00272	48 8b 43 50	 mov	 rax, QWORD PTR [rbx+80]
  00276	44 8b 43 4c	 mov	 r8d, DWORD PTR [rbx+76]
  0027a	41 d3 e1	 shl	 r9d, cl
  0027d	41 8d 4a 02	 lea	 ecx, DWORD PTR [r10+2]
  00281	0f b6 14 01	 movzx	 edx, BYTE PTR [rcx+rax]
  00285	48 8b 4b 60	 mov	 rcx, QWORD PTR [rbx+96]
  00289	44 33 ca	 xor	 r9d, edx
  0028c	44 23 4b 7c	 and	 r9d, DWORD PTR [rbx+124]
  00290	48 8b 53 68	 mov	 rdx, QWORD PTR [rbx+104]
  00294	44 89 4b 70	 mov	 DWORD PTR [rbx+112], r9d
  00298	41 8b c2	 mov	 eax, r10d
  0029b	4c 23 c0	 and	 r8, rax
  0029e	42 0f b7 04 4a	 movzx	 eax, WORD PTR [rdx+r9*2]
  002a3	66 42 89 04 41	 mov	 WORD PTR [rcx+r8*2], ax
  002a8	8b 53 70	 mov	 edx, DWORD PTR [rbx+112]
  002ab	48 8b 4b 68	 mov	 rcx, QWORD PTR [rbx+104]
  002af	0f b7 83 94 00
	00 00		 movzx	 eax, WORD PTR [rbx+148]
  002b6	66 89 04 51	 mov	 WORD PTR [rcx+rdx*2], ax
  002ba	44 8b 93 94 00
	00 00		 mov	 r10d, DWORD PTR [rbx+148]
$LN5@deflate_sl:

; 2053 :                 }
; 2054 :             } while (--s->prev_length != 0);

  002c1	83 83 a0 00 00
	00 ff		 add	 DWORD PTR [rbx+160], -1	; ffffffffH
  002c8	75 88		 jne	 SHORT $LL7@deflate_sl

; 2055 :             s->match_available = 0;
; 2056 :             s->match_length = MIN_MATCH-1;
; 2057 :             s->strstart++;
; 2058 : 
; 2059 :             if (bflush) FLUSH_BLOCK(s, 0);

  002ca	41 3b ee	 cmp	 ebp, r14d
  002cd	89 b3 90 00 00
	00		 mov	 DWORD PTR [rbx+144], esi
  002d3	45 8d 42 01	 lea	 r8d, DWORD PTR [r10+1]
  002d7	89 bb 88 00 00
	00		 mov	 DWORD PTR [rbx+136], edi
  002dd	44 89 83 94 00
	00 00		 mov	 DWORD PTR [rbx+148], r8d
  002e4	4c 8d 35 00 00
	00 00		 lea	 r14, OFFSET FLAT:_length_code
  002eb	bd ff ff 00 00	 mov	 ebp, 65535		; 0000ffffH
  002f0	0f 85 4b fd ff
	ff		 jne	 $LL2@deflate_sl
  002f6	8b 83 84 00 00
	00		 mov	 eax, DWORD PTR [rbx+132]
  002fc	85 c0		 test	 eax, eax
  002fe	78 08		 js	 SHORT $LN32@deflate_sl
  00300	8b d0		 mov	 edx, eax
  00302	48 03 53 50	 add	 rdx, QWORD PTR [rbx+80]
  00306	eb 03		 jmp	 SHORT $LN33@deflate_sl
$LN32@deflate_sl:
  00308	48 8b d6	 mov	 rdx, rsi
$LN33@deflate_sl:
  0030b	44 2b c0	 sub	 r8d, eax
  0030e	45 33 c9	 xor	 r9d, r9d
  00311	48 8b cb	 mov	 rcx, rbx
  00314	e8 00 00 00 00	 call	 _tr_flush_block
  00319	8b 83 94 00 00
	00		 mov	 eax, DWORD PTR [rbx+148]
  0031f	48 8b 0b	 mov	 rcx, QWORD PTR [rbx]
  00322	89 83 84 00 00
	00		 mov	 DWORD PTR [rbx+132], eax
  00328	e8 00 00 00 00	 call	 flush_pending
  0032d	48 8b 03	 mov	 rax, QWORD PTR [rbx]
  00330	39 70 18	 cmp	 DWORD PTR [rax+24], esi
  00333	0f 85 01 fd ff
	ff		 jne	 $LN76@deflate_sl
$LN48@deflate_sl:

; 2070 :             }
; 2071 :             s->strstart++;
; 2072 :             s->lookahead--;
; 2073 :             if (s->strm->avail_out == 0) return need_more;

  00339	33 c0		 xor	 eax, eax
$LN1@deflate_sl:

; 2097 : }

  0033b	48 8b 5c 24 50	 mov	 rbx, QWORD PTR [rsp+80]
  00340	48 8b 6c 24 58	 mov	 rbp, QWORD PTR [rsp+88]
  00345	48 8b 74 24 60	 mov	 rsi, QWORD PTR [rsp+96]
  0034a	48 83 c4 20	 add	 rsp, 32			; 00000020H
  0034e	41 5f		 pop	 r15
  00350	41 5e		 pop	 r14
  00352	41 5d		 pop	 r13
  00354	41 5c		 pop	 r12
  00356	5f		 pop	 rdi
  00357	c3		 ret	 0
$LN63@deflate_sl:

; 2060 : 
; 2061 :         } else if (s->match_available) {

  00358	8b 83 94 00 00
	00		 mov	 eax, DWORD PTR [rbx+148]
  0035e	39 b3 90 00 00
	00		 cmp	 DWORD PTR [rbx+144], esi
  00364	0f 84 c0 00 00
	00		 je	 $LN20@deflate_sl

; 2062 :             /* If there was no match at the previous position, output a
; 2063 :              * single literal. If there was a match but the current match
; 2064 :              * is longer, truncate the previous match to a single literal.
; 2065 :              */
; 2066 :             Tracevv((stderr,"%c", s->window[s->strstart-1]));
; 2067 :             _tr_tally_lit(s, s->window[s->strstart-1], bflush);

  0036a	8d 48 ff	 lea	 ecx, DWORD PTR [rax-1]
  0036d	48 8b 43 50	 mov	 rax, QWORD PTR [rbx+80]
  00371	0f b6 14 01	 movzx	 edx, BYTE PTR [rcx+rax]
  00375	8b 8b f4 16 00
	00		 mov	 ecx, DWORD PTR [rbx+5876]
  0037b	48 8b 83 e8 16
	00 00		 mov	 rax, QWORD PTR [rbx+5864]
  00382	40 88 34 01	 mov	 BYTE PTR [rcx+rax], sil
  00386	ff 83 f4 16 00
	00		 inc	 DWORD PTR [rbx+5876]
  0038c	8b 8b f4 16 00
	00		 mov	 ecx, DWORD PTR [rbx+5876]
  00392	48 8b 83 e8 16
	00 00		 mov	 rax, QWORD PTR [rbx+5864]
  00399	40 88 34 01	 mov	 BYTE PTR [rcx+rax], sil
  0039d	ff 83 f4 16 00
	00		 inc	 DWORD PTR [rbx+5876]
  003a3	8b 8b f4 16 00
	00		 mov	 ecx, DWORD PTR [rbx+5876]
  003a9	48 8b 83 e8 16
	00 00		 mov	 rax, QWORD PTR [rbx+5864]
  003b0	88 14 01	 mov	 BYTE PTR [rcx+rax], dl
  003b3	ff 83 f4 16 00
	00		 inc	 DWORD PTR [rbx+5876]
  003b9	66 ff 84 93 bc
	00 00 00	 inc	 WORD PTR [rbx+rdx*4+188]
  003c1	8b 83 f8 16 00
	00		 mov	 eax, DWORD PTR [rbx+5880]
  003c7	39 83 f4 16 00
	00		 cmp	 DWORD PTR [rbx+5876], eax

; 2068 :             if (bflush) {

  003cd	75 3e		 jne	 SHORT $LN22@deflate_sl

; 2069 :                 FLUSH_BLOCK_ONLY(s, 0);

  003cf	8b 83 84 00 00
	00		 mov	 eax, DWORD PTR [rbx+132]
  003d5	85 c0		 test	 eax, eax
  003d7	78 08		 js	 SHORT $LN34@deflate_sl
  003d9	8b d0		 mov	 edx, eax
  003db	48 03 53 50	 add	 rdx, QWORD PTR [rbx+80]
  003df	eb 03		 jmp	 SHORT $LN35@deflate_sl
$LN34@deflate_sl:
  003e1	48 8b d6	 mov	 rdx, rsi
$LN35@deflate_sl:
  003e4	44 8b 83 94 00
	00 00		 mov	 r8d, DWORD PTR [rbx+148]
  003eb	45 33 c9	 xor	 r9d, r9d
  003ee	44 2b c0	 sub	 r8d, eax
  003f1	48 8b cb	 mov	 rcx, rbx
  003f4	e8 00 00 00 00	 call	 _tr_flush_block
  003f9	8b 83 94 00 00
	00		 mov	 eax, DWORD PTR [rbx+148]
  003ff	48 8b 0b	 mov	 rcx, QWORD PTR [rbx]
  00402	89 83 84 00 00
	00		 mov	 DWORD PTR [rbx+132], eax
  00408	e8 00 00 00 00	 call	 flush_pending
$LN22@deflate_sl:

; 2070 :             }
; 2071 :             s->strstart++;
; 2072 :             s->lookahead--;
; 2073 :             if (s->strm->avail_out == 0) return need_more;

  0040d	48 8b 03	 mov	 rax, QWORD PTR [rbx]
  00410	ff 83 94 00 00
	00		 inc	 DWORD PTR [rbx+148]
  00416	ff 8b 9c 00 00
	00		 dec	 DWORD PTR [rbx+156]
  0041c	39 70 18	 cmp	 DWORD PTR [rax+24], esi
  0041f	0f 85 1c fc ff
	ff		 jne	 $LL2@deflate_sl

; 2074 :         } else {

  00425	e9 0f ff ff ff	 jmp	 $LN48@deflate_sl
$LN20@deflate_sl:

; 2075 :             /* There is no previous match to compare with, wait for
; 2076 :              * the next step to decide.
; 2077 :              */
; 2078 :             s->match_available = 1;
; 2079 :             s->strstart++;

  0042a	ff c0		 inc	 eax
  0042c	c7 83 90 00 00
	00 01 00 00 00	 mov	 DWORD PTR [rbx+144], 1

; 2080 :             s->lookahead--;

  00436	ff 8b 9c 00 00
	00		 dec	 DWORD PTR [rbx+156]
  0043c	89 83 94 00 00
	00		 mov	 DWORD PTR [rbx+148], eax

; 2081 :         }
; 2082 :     }

  00442	e9 fa fb ff ff	 jmp	 $LL2@deflate_sl
$LN46@deflate_sl:

; 2083 :     Assert (flush != Z_NO_FLUSH, "no flush?");
; 2084 :     if (s->match_available) {

  00447	39 b3 90 00 00
	00		 cmp	 DWORD PTR [rbx+144], esi
  0044d	74 62		 je	 SHORT $LN71@deflate_sl

; 2085 :         Tracevv((stderr,"%c", s->window[s->strstart-1]));
; 2086 :         _tr_tally_lit(s, s->window[s->strstart-1], bflush);

  0044f	8b 8b 94 00 00
	00		 mov	 ecx, DWORD PTR [rbx+148]
  00455	48 8b 43 50	 mov	 rax, QWORD PTR [rbx+80]
  00459	ff c9		 dec	 ecx
  0045b	0f b6 14 01	 movzx	 edx, BYTE PTR [rcx+rax]
  0045f	8b 8b f4 16 00
	00		 mov	 ecx, DWORD PTR [rbx+5876]
  00465	48 8b 83 e8 16
	00 00		 mov	 rax, QWORD PTR [rbx+5864]
  0046c	40 88 34 01	 mov	 BYTE PTR [rcx+rax], sil
  00470	ff 83 f4 16 00
	00		 inc	 DWORD PTR [rbx+5876]
  00476	8b 8b f4 16 00
	00		 mov	 ecx, DWORD PTR [rbx+5876]
  0047c	48 8b 83 e8 16
	00 00		 mov	 rax, QWORD PTR [rbx+5864]
  00483	40 88 34 01	 mov	 BYTE PTR [rcx+rax], sil
  00487	ff 83 f4 16 00
	00		 inc	 DWORD PTR [rbx+5876]
  0048d	8b 8b f4 16 00
	00		 mov	 ecx, DWORD PTR [rbx+5876]
  00493	48 8b 83 e8 16
	00 00		 mov	 rax, QWORD PTR [rbx+5864]
  0049a	88 14 01	 mov	 BYTE PTR [rcx+rax], dl
  0049d	ff 83 f4 16 00
	00		 inc	 DWORD PTR [rbx+5876]
  004a3	66 ff 84 93 bc
	00 00 00	 inc	 WORD PTR [rbx+rdx*4+188]

; 2087 :         s->match_available = 0;

  004ab	89 b3 90 00 00
	00		 mov	 DWORD PTR [rbx+144], esi
$LN71@deflate_sl:

; 2088 :     }
; 2089 :     s->insert = s->strstart < MIN_MATCH-1 ? s->strstart : MIN_MATCH-1;

  004b1	8b 83 94 00 00
	00		 mov	 eax, DWORD PTR [rbx+148]
  004b7	3b c7		 cmp	 eax, edi
  004b9	0f 42 f8	 cmovb	 edi, eax
  004bc	89 bb 08 17 00
	00		 mov	 DWORD PTR [rbx+5896], edi

; 2090 :     if (flush == Z_FINISH) {

  004c2	41 83 ff 04	 cmp	 r15d, 4
  004c6	75 4e		 jne	 SHORT $LN25@deflate_sl

; 2091 :         FLUSH_BLOCK(s, 1);

  004c8	8b 8b 84 00 00
	00		 mov	 ecx, DWORD PTR [rbx+132]
  004ce	85 c9		 test	 ecx, ecx
  004d0	78 08		 js	 SHORT $LN38@deflate_sl
  004d2	8b d1		 mov	 edx, ecx
  004d4	48 03 53 50	 add	 rdx, QWORD PTR [rbx+80]
  004d8	eb 03		 jmp	 SHORT $LN39@deflate_sl
$LN38@deflate_sl:
  004da	48 8b d6	 mov	 rdx, rsi
$LN39@deflate_sl:
  004dd	2b c1		 sub	 eax, ecx
  004df	41 b9 01 00 00
	00		 mov	 r9d, 1
  004e5	44 8b c0	 mov	 r8d, eax
  004e8	48 8b cb	 mov	 rcx, rbx
  004eb	e8 00 00 00 00	 call	 _tr_flush_block
  004f0	8b 83 94 00 00
	00		 mov	 eax, DWORD PTR [rbx+148]
  004f6	48 8b 0b	 mov	 rcx, QWORD PTR [rbx]
  004f9	89 83 84 00 00
	00		 mov	 DWORD PTR [rbx+132], eax
  004ff	e8 00 00 00 00	 call	 flush_pending
  00504	48 8b 03	 mov	 rax, QWORD PTR [rbx]
  00507	39 70 18	 cmp	 DWORD PTR [rax+24], esi
  0050a	40 0f 95 c6	 setne	 sil
  0050e	8d 46 02	 lea	 eax, DWORD PTR [rsi+2]
  00511	e9 25 fe ff ff	 jmp	 $LN1@deflate_sl
$LN25@deflate_sl:

; 2092 :         return finish_done;
; 2093 :     }
; 2094 :     if (s->sym_next)

  00516	39 b3 f4 16 00
	00		 cmp	 DWORD PTR [rbx+5876], esi
  0051c	74 44		 je	 SHORT $LN28@deflate_sl

; 2095 :         FLUSH_BLOCK(s, 0);

  0051e	8b 8b 84 00 00
	00		 mov	 ecx, DWORD PTR [rbx+132]
  00524	85 c9		 test	 ecx, ecx
  00526	78 06		 js	 SHORT $LN40@deflate_sl
  00528	8b f1		 mov	 esi, ecx
  0052a	48 03 73 50	 add	 rsi, QWORD PTR [rbx+80]
$LN40@deflate_sl:
  0052e	2b c1		 sub	 eax, ecx
  00530	45 33 c9	 xor	 r9d, r9d
  00533	44 8b c0	 mov	 r8d, eax
  00536	48 8b d6	 mov	 rdx, rsi
  00539	48 8b cb	 mov	 rcx, rbx
  0053c	e8 00 00 00 00	 call	 _tr_flush_block
  00541	8b 83 94 00 00
	00		 mov	 eax, DWORD PTR [rbx+148]
  00547	48 8b 0b	 mov	 rcx, QWORD PTR [rbx]
  0054a	89 83 84 00 00
	00		 mov	 DWORD PTR [rbx+132], eax
  00550	e8 00 00 00 00	 call	 flush_pending
  00555	48 8b 03	 mov	 rax, QWORD PTR [rbx]
  00558	83 78 18 00	 cmp	 DWORD PTR [rax+24], 0
  0055c	0f 84 d7 fd ff
	ff		 je	 $LN48@deflate_sl
$LN28@deflate_sl:

; 2096 :     return block_done;

  00562	b8 01 00 00 00	 mov	 eax, 1
  00567	e9 cf fd ff ff	 jmp	 $LN1@deflate_sl
deflate_slow ENDP
_TEXT	ENDS
; Function compile flags: /Ogtpy
; File G:\1_Projects\BRDF\DisneyBRDF\zlib-1.2.12\deflate.c
;	COMDAT deflate_rle
_TEXT	SEGMENT
s$ = 64
flush$ = 72
deflate_rle PROC					; COMDAT

; 2108 : {

  00000	48 89 5c 24 10	 mov	 QWORD PTR [rsp+16], rbx
  00005	48 89 6c 24 18	 mov	 QWORD PTR [rsp+24], rbp
  0000a	48 89 74 24 20	 mov	 QWORD PTR [rsp+32], rsi
  0000f	57		 push	 rdi
  00010	41 54		 push	 r12
  00012	41 57		 push	 r15
  00014	48 83 ec 20	 sub	 rsp, 32			; 00000020H
  00018	4c 8d b9 94 00
	00 00		 lea	 r15, QWORD PTR [rcx+148]
  0001f	4c 89 74 24 40	 mov	 QWORD PTR [rsp+64], r14
  00024	49 8b f7	 mov	 rsi, r15
  00027	4c 8d 25 00 00
	00 00		 lea	 r12, OFFSET FLAT:_length_code
  0002e	8b ea		 mov	 ebp, edx
  00030	48 8b d9	 mov	 rbx, rcx
  00033	33 ff		 xor	 edi, edi
  00035	66 66 66 0f 1f
	84 00 00 00 00
	00		 npad	 11
$LL2@deflate_rl:

; 2109 :     int bflush;             /* set if current block must be flushed */
; 2110 :     uInt prev;              /* byte at distance one to match */
; 2111 :     Bytef *scan, *strend;   /* scan goes up to strend for length of run */
; 2112 : 
; 2113 :     for (;;) {
; 2114 :         /* Make sure that we always have enough lookahead, except
; 2115 :          * at the end of the input file. We need MAX_MATCH bytes
; 2116 :          * for the longest run, plus one for the unrolled loop.
; 2117 :          */
; 2118 :         if (s->lookahead <= MAX_MATCH) {

  00040	44 8b 83 9c 00
	00 00		 mov	 r8d, DWORD PTR [rbx+156]
  00047	41 81 f8 02 01
	00 00		 cmp	 r8d, 258		; 00000102H
  0004e	77 2c		 ja	 SHORT $LN10@deflate_rl

; 2119 :             fill_window(s);

  00050	48 8b cb	 mov	 rcx, rbx
  00053	e8 00 00 00 00	 call	 fill_window

; 2120 :             if (s->lookahead <= MAX_MATCH && flush == Z_NO_FLUSH) {

  00058	44 8b 83 9c 00
	00 00		 mov	 r8d, DWORD PTR [rbx+156]
  0005f	41 81 f8 02 01
	00 00		 cmp	 r8d, 258		; 00000102H
  00066	77 08		 ja	 SHORT $LN9@deflate_rl
  00068	85 ed		 test	 ebp, ebp
  0006a	0f 84 0a 02 00
	00		 je	 $LN37@deflate_rl
$LN9@deflate_rl:

; 2121 :                 return need_more;
; 2122 :             }
; 2123 :             if (s->lookahead == 0) break; /* flush the current block */

  00070	49 8b f7	 mov	 rsi, r15
  00073	45 85 c0	 test	 r8d, r8d
  00076	0f 84 1e 02 00
	00		 je	 $LN36@deflate_rl
$LN10@deflate_rl:

; 2124 :         }
; 2125 : 
; 2126 :         /* See how many times the previous byte repeats */
; 2127 :         s->match_length = 0;

  0007c	89 bb 88 00 00
	00		 mov	 DWORD PTR [rbx+136], edi
  00082	4c 8b f6	 mov	 r14, rsi
  00085	8b c7		 mov	 eax, edi

; 2128 :         if (s->lookahead >= MIN_MATCH && s->strstart > 0) {

  00087	41 83 f8 03	 cmp	 r8d, 3
  0008b	0f 82 98 00 00
	00		 jb	 $LN14@deflate_rl
  00091	8b 0e		 mov	 ecx, DWORD PTR [rsi]
  00093	85 c9		 test	 ecx, ecx
  00095	0f 84 8e 00 00
	00		 je	 $LN14@deflate_rl

; 2129 :             scan = s->window + s->strstart - 1;

  0009b	4c 8b 4b 50	 mov	 r9, QWORD PTR [rbx+80]
  0009f	4c 03 c9	 add	 r9, rcx
  000a2	41 0f b6 49 ff	 movzx	 ecx, BYTE PTR [r9-1]

; 2130 :             prev = *scan;
; 2131 :             if (prev == *++scan && prev == *++scan && prev == *++scan) {

  000a7	41 3a 09	 cmp	 cl, BYTE PTR [r9]
  000aa	75 7d		 jne	 SHORT $LN14@deflate_rl
  000ac	41 3a 49 01	 cmp	 cl, BYTE PTR [r9+1]
  000b0	75 77		 jne	 SHORT $LN14@deflate_rl
  000b2	41 3a 49 02	 cmp	 cl, BYTE PTR [r9+2]
  000b6	49 8d 51 02	 lea	 rdx, QWORD PTR [r9+2]
  000ba	75 6d		 jne	 SHORT $LN14@deflate_rl

; 2132 :                 strend = s->window + s->strstart + MAX_MATCH;

  000bc	49 81 c1 02 01
	00 00		 add	 r9, 258			; 00000102H
$LL7@deflate_rl:

; 2133 :                 do {
; 2134 :                 } while (prev == *++scan && prev == *++scan &&
; 2135 :                          prev == *++scan && prev == *++scan &&
; 2136 :                          prev == *++scan && prev == *++scan &&
; 2137 :                          prev == *++scan && prev == *++scan &&

  000c3	3a 4a 01	 cmp	 cl, BYTE PTR [rdx+1]
  000c6	48 8d 42 01	 lea	 rax, QWORD PTR [rdx+1]
  000ca	75 41		 jne	 SHORT $LN13@deflate_rl
  000cc	48 8d 50 01	 lea	 rdx, QWORD PTR [rax+1]
  000d0	8b c2		 mov	 eax, edx
  000d2	3a 0a		 cmp	 cl, BYTE PTR [rdx]
  000d4	75 37		 jne	 SHORT $LN13@deflate_rl
  000d6	8d 42 01	 lea	 eax, DWORD PTR [rdx+1]
  000d9	3a 4a 01	 cmp	 cl, BYTE PTR [rdx+1]
  000dc	75 2f		 jne	 SHORT $LN13@deflate_rl
  000de	8d 42 02	 lea	 eax, DWORD PTR [rdx+2]
  000e1	3a 4a 02	 cmp	 cl, BYTE PTR [rdx+2]
  000e4	75 27		 jne	 SHORT $LN13@deflate_rl
  000e6	8d 42 03	 lea	 eax, DWORD PTR [rdx+3]
  000e9	3a 4a 03	 cmp	 cl, BYTE PTR [rdx+3]
  000ec	75 1f		 jne	 SHORT $LN13@deflate_rl
  000ee	8d 42 04	 lea	 eax, DWORD PTR [rdx+4]
  000f1	3a 4a 04	 cmp	 cl, BYTE PTR [rdx+4]
  000f4	75 17		 jne	 SHORT $LN13@deflate_rl
  000f6	8d 42 05	 lea	 eax, DWORD PTR [rdx+5]
  000f9	3a 4a 05	 cmp	 cl, BYTE PTR [rdx+5]
  000fc	75 0f		 jne	 SHORT $LN13@deflate_rl
  000fe	48 83 c2 06	 add	 rdx, 6
  00102	8b c2		 mov	 eax, edx
  00104	3a 0a		 cmp	 cl, BYTE PTR [rdx]
  00106	75 05		 jne	 SHORT $LN13@deflate_rl
  00108	49 3b d1	 cmp	 rdx, r9
  0010b	72 b6		 jb	 SHORT $LL7@deflate_rl
$LN13@deflate_rl:

; 2138 :                          scan < strend);
; 2139 :                 s->match_length = MAX_MATCH - (uInt)(strend - scan);

  0010d	41 2b c1	 sub	 eax, r9d
  00110	05 02 01 00 00	 add	 eax, 258		; 00000102H
  00115	89 83 88 00 00
	00		 mov	 DWORD PTR [rbx+136], eax

; 2140 :                 if (s->match_length > s->lookahead)

  0011b	41 3b c0	 cmp	 eax, r8d
  0011e	76 09		 jbe	 SHORT $LN14@deflate_rl

; 2141 :                     s->match_length = s->lookahead;

  00120	44 89 83 88 00
	00 00		 mov	 DWORD PTR [rbx+136], r8d

; 2161 :         }
; 2162 :         if (bflush) FLUSH_BLOCK(s, 0);

  00127	eb 0c		 jmp	 SHORT $LN53@deflate_rl
$LN14@deflate_rl:

; 2142 :             }
; 2143 :             Assert(scan <= s->window+(uInt)(s->window_size-1), "wild scan");
; 2144 :         }
; 2145 : 
; 2146 :         /* Emit match if have run of MIN_MATCH or longer, else emit literal */
; 2147 :         if (s->match_length >= MIN_MATCH) {

  00129	44 8b c0	 mov	 r8d, eax
  0012c	83 f8 03	 cmp	 eax, 3
  0012f	0f 82 88 00 00
	00		 jb	 $LN15@deflate_rl
$LN53@deflate_rl:

; 2148 :             check_match(s, s->strstart, s->strstart - 1, s->match_length);
; 2149 : 
; 2150 :             _tr_tally_dist(s, 1, s->match_length - MIN_MATCH, bflush);

  00135	8b 8b f4 16 00
	00		 mov	 ecx, DWORD PTR [rbx+5876]
  0013b	41 80 e8 03	 sub	 r8b, 3
  0013f	48 8b 83 e8 16
	00 00		 mov	 rax, QWORD PTR [rbx+5864]
  00146	c6 04 01 01	 mov	 BYTE PTR [rcx+rax], 1
  0014a	ff 83 f4 16 00
	00		 inc	 DWORD PTR [rbx+5876]
  00150	8b 8b f4 16 00
	00		 mov	 ecx, DWORD PTR [rbx+5876]
  00156	48 8b 83 e8 16
	00 00		 mov	 rax, QWORD PTR [rbx+5864]
  0015d	40 88 3c 01	 mov	 BYTE PTR [rcx+rax], dil
  00161	ff 83 f4 16 00
	00		 inc	 DWORD PTR [rbx+5876]
  00167	8b 8b f4 16 00
	00		 mov	 ecx, DWORD PTR [rbx+5876]
  0016d	48 8b 83 e8 16
	00 00		 mov	 rax, QWORD PTR [rbx+5864]
  00174	44 88 04 01	 mov	 BYTE PTR [rcx+rax], r8b
  00178	8b cf		 mov	 ecx, edi
  0017a	ff 83 f4 16 00
	00		 inc	 DWORD PTR [rbx+5876]
  00180	41 0f b6 c0	 movzx	 eax, r8b
  00184	42 0f b6 04 20	 movzx	 eax, BYTE PTR [rax+r12]
  00189	66 ff 84 83 c0
	04 00 00	 inc	 WORD PTR [rbx+rax*4+1216]
  00191	66 ff 83 b0 09
	00 00		 inc	 WORD PTR [rbx+2480]
  00198	8b 83 f8 16 00
	00		 mov	 eax, DWORD PTR [rbx+5880]
  0019e	39 83 f4 16 00
	00		 cmp	 DWORD PTR [rbx+5876], eax

; 2151 : 
; 2152 :             s->lookahead -= s->match_length;

  001a4	8b 83 88 00 00
	00		 mov	 eax, DWORD PTR [rbx+136]
  001aa	0f 94 c1	 sete	 cl

; 2153 :             s->strstart += s->match_length;
; 2154 :             s->match_length = 0;

  001ad	89 bb 88 00 00
	00		 mov	 DWORD PTR [rbx+136], edi
  001b3	29 83 9c 00 00
	00		 sub	 DWORD PTR [rbx+156], eax
  001b9	01 06		 add	 DWORD PTR [rsi], eax

; 2155 :         } else {

  001bb	eb 6f		 jmp	 SHORT $LN58@deflate_rl
$LN15@deflate_rl:

; 2156 :             /* No match, output a literal byte */
; 2157 :             Tracevv((stderr,"%c", s->window[s->strstart]));
; 2158 :             _tr_tally_lit (s, s->window[s->strstart], bflush);

  001bd	8b 0e		 mov	 ecx, DWORD PTR [rsi]
  001bf	48 8b 43 50	 mov	 rax, QWORD PTR [rbx+80]
  001c3	0f b6 14 01	 movzx	 edx, BYTE PTR [rcx+rax]
  001c7	8b 8b f4 16 00
	00		 mov	 ecx, DWORD PTR [rbx+5876]
  001cd	48 8b 83 e8 16
	00 00		 mov	 rax, QWORD PTR [rbx+5864]
  001d4	40 88 3c 01	 mov	 BYTE PTR [rcx+rax], dil
  001d8	ff 83 f4 16 00
	00		 inc	 DWORD PTR [rbx+5876]
  001de	8b 8b f4 16 00
	00		 mov	 ecx, DWORD PTR [rbx+5876]
  001e4	48 8b 83 e8 16
	00 00		 mov	 rax, QWORD PTR [rbx+5864]
  001eb	40 88 3c 01	 mov	 BYTE PTR [rcx+rax], dil
  001ef	ff 83 f4 16 00
	00		 inc	 DWORD PTR [rbx+5876]
  001f5	8b 8b f4 16 00
	00		 mov	 ecx, DWORD PTR [rbx+5876]
  001fb	48 8b 83 e8 16
	00 00		 mov	 rax, QWORD PTR [rbx+5864]
  00202	88 14 01	 mov	 BYTE PTR [rcx+rax], dl
  00205	8b cf		 mov	 ecx, edi
  00207	ff 83 f4 16 00
	00		 inc	 DWORD PTR [rbx+5876]
  0020d	66 ff 84 93 bc
	00 00 00	 inc	 WORD PTR [rbx+rdx*4+188]
  00215	8b 83 f8 16 00
	00		 mov	 eax, DWORD PTR [rbx+5880]
  0021b	39 83 f4 16 00
	00		 cmp	 DWORD PTR [rbx+5876], eax
  00221	0f 94 c1	 sete	 cl

; 2159 :             s->lookahead--;

  00224	ff 8b 9c 00 00
	00		 dec	 DWORD PTR [rbx+156]

; 2160 :             s->strstart++;

  0022a	ff 06		 inc	 DWORD PTR [rsi]
$LN58@deflate_rl:

; 2161 :         }
; 2162 :         if (bflush) FLUSH_BLOCK(s, 0);

  0022c	44 8b 06	 mov	 r8d, DWORD PTR [rsi]
  0022f	85 c9		 test	 ecx, ecx
  00231	0f 84 09 fe ff
	ff		 je	 $LL2@deflate_rl
  00237	8b 83 84 00 00
	00		 mov	 eax, DWORD PTR [rbx+132]
  0023d	85 c0		 test	 eax, eax
  0023f	78 08		 js	 SHORT $LN26@deflate_rl
  00241	8b d0		 mov	 edx, eax
  00243	48 03 53 50	 add	 rdx, QWORD PTR [rbx+80]
  00247	eb 03		 jmp	 SHORT $LN27@deflate_rl
$LN26@deflate_rl:
  00249	48 8b d7	 mov	 rdx, rdi
$LN27@deflate_rl:
  0024c	44 2b c0	 sub	 r8d, eax
  0024f	45 33 c9	 xor	 r9d, r9d
  00252	48 8b cb	 mov	 rcx, rbx
  00255	e8 00 00 00 00	 call	 _tr_flush_block
  0025a	41 8b 06	 mov	 eax, DWORD PTR [r14]
  0025d	49 8b f6	 mov	 rsi, r14
  00260	48 8b 0b	 mov	 rcx, QWORD PTR [rbx]
  00263	89 83 84 00 00
	00		 mov	 DWORD PTR [rbx+132], eax
  00269	e8 00 00 00 00	 call	 flush_pending
  0026e	48 8b 03	 mov	 rax, QWORD PTR [rbx]
  00271	39 78 18	 cmp	 DWORD PTR [rax+24], edi
  00274	0f 85 c6 fd ff
	ff		 jne	 $LL2@deflate_rl
$LN37@deflate_rl:
  0027a	33 c0		 xor	 eax, eax
$LN1@deflate_rl:
  0027c	4c 8b 74 24 40	 mov	 r14, QWORD PTR [rsp+64]

; 2172 : }

  00281	48 8b 5c 24 48	 mov	 rbx, QWORD PTR [rsp+72]
  00286	48 8b 6c 24 50	 mov	 rbp, QWORD PTR [rsp+80]
  0028b	48 8b 74 24 58	 mov	 rsi, QWORD PTR [rsp+88]
  00290	48 83 c4 20	 add	 rsp, 32			; 00000020H
  00294	41 5f		 pop	 r15
  00296	41 5c		 pop	 r12
  00298	5f		 pop	 rdi
  00299	c3		 ret	 0
$LN36@deflate_rl:

; 2163 :     }
; 2164 :     s->insert = 0;

  0029a	89 bb 08 17 00
	00		 mov	 DWORD PTR [rbx+5896], edi

; 2165 :     if (flush == Z_FINISH) {

  002a0	83 fd 04	 cmp	 ebp, 4
  002a3	75 49		 jne	 SHORT $LN19@deflate_rl

; 2166 :         FLUSH_BLOCK(s, 1);

  002a5	8b 83 84 00 00
	00		 mov	 eax, DWORD PTR [rbx+132]
  002ab	85 c0		 test	 eax, eax
  002ad	78 08		 js	 SHORT $LN28@deflate_rl
  002af	8b d0		 mov	 edx, eax
  002b1	48 03 53 50	 add	 rdx, QWORD PTR [rbx+80]
  002b5	eb 03		 jmp	 SHORT $LN29@deflate_rl
$LN28@deflate_rl:
  002b7	48 8b d7	 mov	 rdx, rdi
$LN29@deflate_rl:
  002ba	45 8b 07	 mov	 r8d, DWORD PTR [r15]
  002bd	41 b9 01 00 00
	00		 mov	 r9d, 1
  002c3	44 2b c0	 sub	 r8d, eax
  002c6	48 8b cb	 mov	 rcx, rbx
  002c9	e8 00 00 00 00	 call	 _tr_flush_block
  002ce	41 8b 07	 mov	 eax, DWORD PTR [r15]
  002d1	48 8b 0b	 mov	 rcx, QWORD PTR [rbx]
  002d4	89 83 84 00 00
	00		 mov	 DWORD PTR [rbx+132], eax
  002da	e8 00 00 00 00	 call	 flush_pending
  002df	48 8b 03	 mov	 rax, QWORD PTR [rbx]
  002e2	39 78 18	 cmp	 DWORD PTR [rax+24], edi
  002e5	40 0f 95 c7	 setne	 dil
  002e9	8d 47 02	 lea	 eax, DWORD PTR [rdi+2]
  002ec	eb 8e		 jmp	 SHORT $LN1@deflate_rl
$LN19@deflate_rl:

; 2167 :         return finish_done;
; 2168 :     }
; 2169 :     if (s->sym_next)

  002ee	39 bb f4 16 00
	00		 cmp	 DWORD PTR [rbx+5876], edi
  002f4	74 42		 je	 SHORT $LN22@deflate_rl

; 2170 :         FLUSH_BLOCK(s, 0);

  002f6	8b 83 84 00 00
	00		 mov	 eax, DWORD PTR [rbx+132]
  002fc	85 c0		 test	 eax, eax
  002fe	78 06		 js	 SHORT $LN30@deflate_rl
  00300	8b f8		 mov	 edi, eax
  00302	48 03 7b 50	 add	 rdi, QWORD PTR [rbx+80]
$LN30@deflate_rl:
  00306	45 8b 07	 mov	 r8d, DWORD PTR [r15]
  00309	45 33 c9	 xor	 r9d, r9d
  0030c	44 2b c0	 sub	 r8d, eax
  0030f	48 8b d7	 mov	 rdx, rdi
  00312	48 8b cb	 mov	 rcx, rbx
  00315	e8 00 00 00 00	 call	 _tr_flush_block
  0031a	41 8b 07	 mov	 eax, DWORD PTR [r15]
  0031d	48 8b 0b	 mov	 rcx, QWORD PTR [rbx]
  00320	89 83 84 00 00
	00		 mov	 DWORD PTR [rbx+132], eax
  00326	e8 00 00 00 00	 call	 flush_pending
  0032b	48 8b 03	 mov	 rax, QWORD PTR [rbx]
  0032e	83 78 18 00	 cmp	 DWORD PTR [rax+24], 0
  00332	0f 84 42 ff ff
	ff		 je	 $LN37@deflate_rl
$LN22@deflate_rl:

; 2171 :     return block_done;

  00338	b8 01 00 00 00	 mov	 eax, 1
  0033d	e9 3a ff ff ff	 jmp	 $LN1@deflate_rl
deflate_rle ENDP
_TEXT	ENDS
; Function compile flags: /Ogtpy
; File G:\1_Projects\BRDF\DisneyBRDF\zlib-1.2.12\deflate.c
;	COMDAT deflate_huff
_TEXT	SEGMENT
s$ = 48
flush$ = 56
deflate_huff PROC					; COMDAT

; 2181 : {

  00000	48 89 5c 24 08	 mov	 QWORD PTR [rsp+8], rbx
  00005	48 89 74 24 10	 mov	 QWORD PTR [rsp+16], rsi
  0000a	57		 push	 rdi
  0000b	48 83 ec 20	 sub	 rsp, 32			; 00000020H
  0000f	8b f2		 mov	 esi, edx
  00011	48 8b d9	 mov	 rbx, rcx
  00014	33 ff		 xor	 edi, edi
$LL2@deflate_hu:

; 2182 :     int bflush;             /* set if current block must be flushed */
; 2183 : 
; 2184 :     for (;;) {
; 2185 :         /* Make sure that we have a literal to write. */
; 2186 :         if (s->lookahead == 0) {

  00016	39 bb 9c 00 00
	00		 cmp	 DWORD PTR [rbx+156], edi
  0001c	75 14		 jne	 SHORT $LN6@deflate_hu

; 2187 :             fill_window(s);

  0001e	48 8b cb	 mov	 rcx, rbx
  00021	e8 00 00 00 00	 call	 fill_window

; 2188 :             if (s->lookahead == 0) {

  00026	39 bb 9c 00 00
	00		 cmp	 DWORD PTR [rbx+156], edi
  0002c	0f 84 de 00 00
	00		 je	 $LN23@deflate_hu
$LN6@deflate_hu:

; 2190 :                     return need_more;
; 2191 :                 break;      /* flush the current block */
; 2192 :             }
; 2193 :         }
; 2194 : 
; 2195 :         /* Output a literal byte */
; 2196 :         s->match_length = 0;
; 2197 :         Tracevv((stderr,"%c", s->window[s->strstart]));
; 2198 :         _tr_tally_lit (s, s->window[s->strstart], bflush);

  00032	8b 8b 94 00 00
	00		 mov	 ecx, DWORD PTR [rbx+148]
  00038	48 8b 43 50	 mov	 rax, QWORD PTR [rbx+80]
  0003c	89 bb 88 00 00
	00		 mov	 DWORD PTR [rbx+136], edi
  00042	0f b6 14 01	 movzx	 edx, BYTE PTR [rcx+rax]
  00046	8b 8b f4 16 00
	00		 mov	 ecx, DWORD PTR [rbx+5876]
  0004c	48 8b 83 e8 16
	00 00		 mov	 rax, QWORD PTR [rbx+5864]
  00053	40 88 3c 01	 mov	 BYTE PTR [rcx+rax], dil
  00057	ff 83 f4 16 00
	00		 inc	 DWORD PTR [rbx+5876]
  0005d	8b 8b f4 16 00
	00		 mov	 ecx, DWORD PTR [rbx+5876]
  00063	48 8b 83 e8 16
	00 00		 mov	 rax, QWORD PTR [rbx+5864]
  0006a	40 88 3c 01	 mov	 BYTE PTR [rcx+rax], dil
  0006e	ff 83 f4 16 00
	00		 inc	 DWORD PTR [rbx+5876]
  00074	8b 8b f4 16 00
	00		 mov	 ecx, DWORD PTR [rbx+5876]
  0007a	48 8b 83 e8 16
	00 00		 mov	 rax, QWORD PTR [rbx+5864]
  00081	88 14 01	 mov	 BYTE PTR [rcx+rax], dl
  00084	ff 83 f4 16 00
	00		 inc	 DWORD PTR [rbx+5876]
  0008a	66 ff 84 93 bc
	00 00 00	 inc	 WORD PTR [rbx+rdx*4+188]

; 2199 :         s->lookahead--;
; 2200 :         s->strstart++;

  00092	44 8b 83 94 00
	00 00		 mov	 r8d, DWORD PTR [rbx+148]
  00099	ff 8b 9c 00 00
	00		 dec	 DWORD PTR [rbx+156]
  0009f	41 ff c0	 inc	 r8d
  000a2	8b 83 f8 16 00
	00		 mov	 eax, DWORD PTR [rbx+5880]
  000a8	44 89 83 94 00
	00 00		 mov	 DWORD PTR [rbx+148], r8d
  000af	39 83 f4 16 00
	00		 cmp	 DWORD PTR [rbx+5876], eax

; 2201 :         if (bflush) FLUSH_BLOCK(s, 0);

  000b5	0f 85 5b ff ff
	ff		 jne	 $LL2@deflate_hu
  000bb	8b 83 84 00 00
	00		 mov	 eax, DWORD PTR [rbx+132]
  000c1	85 c0		 test	 eax, eax
  000c3	78 08		 js	 SHORT $LN15@deflate_hu
  000c5	8b d0		 mov	 edx, eax
  000c7	48 03 53 50	 add	 rdx, QWORD PTR [rbx+80]
  000cb	eb 03		 jmp	 SHORT $LN16@deflate_hu
$LN15@deflate_hu:
  000cd	48 8b d7	 mov	 rdx, rdi
$LN16@deflate_hu:
  000d0	44 2b c0	 sub	 r8d, eax
  000d3	45 33 c9	 xor	 r9d, r9d
  000d6	48 8b cb	 mov	 rcx, rbx
  000d9	e8 00 00 00 00	 call	 _tr_flush_block
  000de	8b 83 94 00 00
	00		 mov	 eax, DWORD PTR [rbx+148]
  000e4	48 8b 0b	 mov	 rcx, QWORD PTR [rbx]
  000e7	89 83 84 00 00
	00		 mov	 DWORD PTR [rbx+132], eax
  000ed	e8 00 00 00 00	 call	 flush_pending
  000f2	48 8b 03	 mov	 rax, QWORD PTR [rbx]
  000f5	39 78 18	 cmp	 DWORD PTR [rax+24], edi
  000f8	0f 85 18 ff ff
	ff		 jne	 $LL2@deflate_hu
$LN24@deflate_hu:
  000fe	33 c0		 xor	 eax, eax

; 2210 :     return block_done;
; 2211 : }

  00100	48 8b 5c 24 30	 mov	 rbx, QWORD PTR [rsp+48]
  00105	48 8b 74 24 38	 mov	 rsi, QWORD PTR [rsp+56]
  0010a	48 83 c4 20	 add	 rsp, 32			; 00000020H
  0010e	5f		 pop	 rdi
  0010f	c3		 ret	 0
$LN23@deflate_hu:

; 2189 :                 if (flush == Z_NO_FLUSH)

  00110	85 f6		 test	 esi, esi
  00112	74 ea		 je	 SHORT $LN24@deflate_hu

; 2202 :     }
; 2203 :     s->insert = 0;

  00114	89 bb 08 17 00
	00		 mov	 DWORD PTR [rbx+5896], edi

; 2204 :     if (flush == Z_FINISH) {

  0011a	83 fe 04	 cmp	 esi, 4
  0011d	75 5e		 jne	 SHORT $LN10@deflate_hu

; 2205 :         FLUSH_BLOCK(s, 1);

  0011f	8b 83 84 00 00
	00		 mov	 eax, DWORD PTR [rbx+132]
  00125	85 c0		 test	 eax, eax
  00127	78 08		 js	 SHORT $LN17@deflate_hu
  00129	8b d0		 mov	 edx, eax
  0012b	48 03 53 50	 add	 rdx, QWORD PTR [rbx+80]
  0012f	eb 03		 jmp	 SHORT $LN18@deflate_hu
$LN17@deflate_hu:
  00131	48 8b d7	 mov	 rdx, rdi
$LN18@deflate_hu:
  00134	44 8b 83 94 00
	00 00		 mov	 r8d, DWORD PTR [rbx+148]
  0013b	41 b9 01 00 00
	00		 mov	 r9d, 1
  00141	44 2b c0	 sub	 r8d, eax
  00144	48 8b cb	 mov	 rcx, rbx
  00147	e8 00 00 00 00	 call	 _tr_flush_block
  0014c	8b 83 94 00 00
	00		 mov	 eax, DWORD PTR [rbx+148]
  00152	48 8b 0b	 mov	 rcx, QWORD PTR [rbx]
  00155	89 83 84 00 00
	00		 mov	 DWORD PTR [rbx+132], eax
  0015b	e8 00 00 00 00	 call	 flush_pending
  00160	48 8b 03	 mov	 rax, QWORD PTR [rbx]
  00163	39 78 18	 cmp	 DWORD PTR [rax+24], edi
  00166	40 0f 95 c7	 setne	 dil
  0016a	8d 47 02	 lea	 eax, DWORD PTR [rdi+2]

; 2210 :     return block_done;
; 2211 : }

  0016d	48 8b 5c 24 30	 mov	 rbx, QWORD PTR [rsp+48]
  00172	48 8b 74 24 38	 mov	 rsi, QWORD PTR [rsp+56]
  00177	48 83 c4 20	 add	 rsp, 32			; 00000020H
  0017b	5f		 pop	 rdi
  0017c	c3		 ret	 0
$LN10@deflate_hu:

; 2206 :         return finish_done;
; 2207 :     }
; 2208 :     if (s->sym_next)

  0017d	39 bb f4 16 00
	00		 cmp	 DWORD PTR [rbx+5876], edi
  00183	74 49		 je	 SHORT $LN13@deflate_hu

; 2209 :         FLUSH_BLOCK(s, 0);

  00185	8b 83 84 00 00
	00		 mov	 eax, DWORD PTR [rbx+132]
  0018b	85 c0		 test	 eax, eax
  0018d	78 06		 js	 SHORT $LN19@deflate_hu
  0018f	8b f8		 mov	 edi, eax
  00191	48 03 7b 50	 add	 rdi, QWORD PTR [rbx+80]
$LN19@deflate_hu:
  00195	44 8b 83 94 00
	00 00		 mov	 r8d, DWORD PTR [rbx+148]
  0019c	45 33 c9	 xor	 r9d, r9d
  0019f	44 2b c0	 sub	 r8d, eax
  001a2	48 8b d7	 mov	 rdx, rdi
  001a5	48 8b cb	 mov	 rcx, rbx
  001a8	e8 00 00 00 00	 call	 _tr_flush_block
  001ad	8b 83 94 00 00
	00		 mov	 eax, DWORD PTR [rbx+148]
  001b3	48 8b 0b	 mov	 rcx, QWORD PTR [rbx]
  001b6	89 83 84 00 00
	00		 mov	 DWORD PTR [rbx+132], eax
  001bc	e8 00 00 00 00	 call	 flush_pending
  001c1	48 8b 03	 mov	 rax, QWORD PTR [rbx]
  001c4	83 78 18 00	 cmp	 DWORD PTR [rax+24], 0
  001c8	0f 84 30 ff ff
	ff		 je	 $LN24@deflate_hu
$LN13@deflate_hu:

; 2210 :     return block_done;
; 2211 : }

  001ce	48 8b 5c 24 30	 mov	 rbx, QWORD PTR [rsp+48]
  001d3	b8 01 00 00 00	 mov	 eax, 1
  001d8	48 8b 74 24 38	 mov	 rsi, QWORD PTR [rsp+56]
  001dd	48 83 c4 20	 add	 rsp, 32			; 00000020H
  001e1	5f		 pop	 rdi
  001e2	c3		 ret	 0
deflate_huff ENDP
_TEXT	ENDS
END
