; Listing generated by Microsoft (R) Optimizing Compiler Version 19.31.31107.0 

include listing.inc

INCLUDELIB OLDNAMES

PUBLIC	_length_code
PUBLIC	_dist_code
_length_code DB	00H
	DB	01H
	DB	02H
	DB	03H
	DB	04H
	DB	05H
	DB	06H
	DB	07H
	DB	08H
	DB	08H
	DB	09H
	DB	09H
	DB	0aH
	DB	0aH
	DB	0bH
	DB	0bH
	DB	0cH
	DB	0cH
	DB	0cH
	DB	0cH
	DB	0dH
	DB	0dH
	DB	0dH
	DB	0dH
	DB	0eH
	DB	0eH
	DB	0eH
	DB	0eH
	DB	0fH
	DB	0fH
	DB	0fH
	DB	0fH
	DB	010H
	DB	010H
	DB	010H
	DB	010H
	DB	010H
	DB	010H
	DB	010H
	DB	010H
	DB	011H
	DB	011H
	DB	011H
	DB	011H
	DB	011H
	DB	011H
	DB	011H
	DB	011H
	DB	012H
	DB	012H
	DB	012H
	DB	012H
	DB	012H
	DB	012H
	DB	012H
	DB	012H
	DB	013H
	DB	013H
	DB	013H
	DB	013H
	DB	013H
	DB	013H
	DB	013H
	DB	013H
	DB	014H
	DB	014H
	DB	014H
	DB	014H
	DB	014H
	DB	014H
	DB	014H
	DB	014H
	DB	014H
	DB	014H
	DB	014H
	DB	014H
	DB	014H
	DB	014H
	DB	014H
	DB	014H
	DB	015H
	DB	015H
	DB	015H
	DB	015H
	DB	015H
	DB	015H
	DB	015H
	DB	015H
	DB	015H
	DB	015H
	DB	015H
	DB	015H
	DB	015H
	DB	015H
	DB	015H
	DB	015H
	DB	016H
	DB	016H
	DB	016H
	DB	016H
	DB	016H
	DB	016H
	DB	016H
	DB	016H
	DB	016H
	DB	016H
	DB	016H
	DB	016H
	DB	016H
	DB	016H
	DB	016H
	DB	016H
	DB	017H
	DB	017H
	DB	017H
	DB	017H
	DB	017H
	DB	017H
	DB	017H
	DB	017H
	DB	017H
	DB	017H
	DB	017H
	DB	017H
	DB	017H
	DB	017H
	DB	017H
	DB	017H
	DB	018H
	DB	018H
	DB	018H
	DB	018H
	DB	018H
	DB	018H
	DB	018H
	DB	018H
	DB	018H
	DB	018H
	DB	018H
	DB	018H
	DB	018H
	DB	018H
	DB	018H
	DB	018H
	DB	018H
	DB	018H
	DB	018H
	DB	018H
	DB	018H
	DB	018H
	DB	018H
	DB	018H
	DB	018H
	DB	018H
	DB	018H
	DB	018H
	DB	018H
	DB	018H
	DB	018H
	DB	018H
	DB	019H
	DB	019H
	DB	019H
	DB	019H
	DB	019H
	DB	019H
	DB	019H
	DB	019H
	DB	019H
	DB	019H
	DB	019H
	DB	019H
	DB	019H
	DB	019H
	DB	019H
	DB	019H
	DB	019H
	DB	019H
	DB	019H
	DB	019H
	DB	019H
	DB	019H
	DB	019H
	DB	019H
	DB	019H
	DB	019H
	DB	019H
	DB	019H
	DB	019H
	DB	019H
	DB	019H
	DB	019H
	DB	01aH
	DB	01aH
	DB	01aH
	DB	01aH
	DB	01aH
	DB	01aH
	DB	01aH
	DB	01aH
	DB	01aH
	DB	01aH
	DB	01aH
	DB	01aH
	DB	01aH
	DB	01aH
	DB	01aH
	DB	01aH
	DB	01aH
	DB	01aH
	DB	01aH
	DB	01aH
	DB	01aH
	DB	01aH
	DB	01aH
	DB	01aH
	DB	01aH
	DB	01aH
	DB	01aH
	DB	01aH
	DB	01aH
	DB	01aH
	DB	01aH
	DB	01aH
	DB	01bH
	DB	01bH
	DB	01bH
	DB	01bH
	DB	01bH
	DB	01bH
	DB	01bH
	DB	01bH
	DB	01bH
	DB	01bH
	DB	01bH
	DB	01bH
	DB	01bH
	DB	01bH
	DB	01bH
	DB	01bH
	DB	01bH
	DB	01bH
	DB	01bH
	DB	01bH
	DB	01bH
	DB	01bH
	DB	01bH
	DB	01bH
	DB	01bH
	DB	01bH
	DB	01bH
	DB	01bH
	DB	01bH
	DB	01bH
	DB	01bH
	DB	01cH
_dist_code DB	00H
	DB	01H
	DB	02H
	DB	03H
	DB	04H
	DB	04H
	DB	05H
	DB	05H
	DB	06H
	DB	06H
	DB	06H
	DB	06H
	DB	07H
	DB	07H
	DB	07H
	DB	07H
	DB	08H
	DB	08H
	DB	08H
	DB	08H
	DB	08H
	DB	08H
	DB	08H
	DB	08H
	DB	09H
	DB	09H
	DB	09H
	DB	09H
	DB	09H
	DB	09H
	DB	09H
	DB	09H
	DB	0aH
	DB	0aH
	DB	0aH
	DB	0aH
	DB	0aH
	DB	0aH
	DB	0aH
	DB	0aH
	DB	0aH
	DB	0aH
	DB	0aH
	DB	0aH
	DB	0aH
	DB	0aH
	DB	0aH
	DB	0aH
	DB	0bH
	DB	0bH
	DB	0bH
	DB	0bH
	DB	0bH
	DB	0bH
	DB	0bH
	DB	0bH
	DB	0bH
	DB	0bH
	DB	0bH
	DB	0bH
	DB	0bH
	DB	0bH
	DB	0bH
	DB	0bH
	DB	0cH
	DB	0cH
	DB	0cH
	DB	0cH
	DB	0cH
	DB	0cH
	DB	0cH
	DB	0cH
	DB	0cH
	DB	0cH
	DB	0cH
	DB	0cH
	DB	0cH
	DB	0cH
	DB	0cH
	DB	0cH
	DB	0cH
	DB	0cH
	DB	0cH
	DB	0cH
	DB	0cH
	DB	0cH
	DB	0cH
	DB	0cH
	DB	0cH
	DB	0cH
	DB	0cH
	DB	0cH
	DB	0cH
	DB	0cH
	DB	0cH
	DB	0cH
	DB	0dH
	DB	0dH
	DB	0dH
	DB	0dH
	DB	0dH
	DB	0dH
	DB	0dH
	DB	0dH
	DB	0dH
	DB	0dH
	DB	0dH
	DB	0dH
	DB	0dH
	DB	0dH
	DB	0dH
	DB	0dH
	DB	0dH
	DB	0dH
	DB	0dH
	DB	0dH
	DB	0dH
	DB	0dH
	DB	0dH
	DB	0dH
	DB	0dH
	DB	0dH
	DB	0dH
	DB	0dH
	DB	0dH
	DB	0dH
	DB	0dH
	DB	0dH
	DB	0eH
	DB	0eH
	DB	0eH
	DB	0eH
	DB	0eH
	DB	0eH
	DB	0eH
	DB	0eH
	DB	0eH
	DB	0eH
	DB	0eH
	DB	0eH
	DB	0eH
	DB	0eH
	DB	0eH
	DB	0eH
	DB	0eH
	DB	0eH
	DB	0eH
	DB	0eH
	DB	0eH
	DB	0eH
	DB	0eH
	DB	0eH
	DB	0eH
	DB	0eH
	DB	0eH
	DB	0eH
	DB	0eH
	DB	0eH
	DB	0eH
	DB	0eH
	DB	0eH
	DB	0eH
	DB	0eH
	DB	0eH
	DB	0eH
	DB	0eH
	DB	0eH
	DB	0eH
	DB	0eH
	DB	0eH
	DB	0eH
	DB	0eH
	DB	0eH
	DB	0eH
	DB	0eH
	DB	0eH
	DB	0eH
	DB	0eH
	DB	0eH
	DB	0eH
	DB	0eH
	DB	0eH
	DB	0eH
	DB	0eH
	DB	0eH
	DB	0eH
	DB	0eH
	DB	0eH
	DB	0eH
	DB	0eH
	DB	0eH
	DB	0eH
	DB	0fH
	DB	0fH
	DB	0fH
	DB	0fH
	DB	0fH
	DB	0fH
	DB	0fH
	DB	0fH
	DB	0fH
	DB	0fH
	DB	0fH
	DB	0fH
	DB	0fH
	DB	0fH
	DB	0fH
	DB	0fH
	DB	0fH
	DB	0fH
	DB	0fH
	DB	0fH
	DB	0fH
	DB	0fH
	DB	0fH
	DB	0fH
	DB	0fH
	DB	0fH
	DB	0fH
	DB	0fH
	DB	0fH
	DB	0fH
	DB	0fH
	DB	0fH
	DB	0fH
	DB	0fH
	DB	0fH
	DB	0fH
	DB	0fH
	DB	0fH
	DB	0fH
	DB	0fH
	DB	0fH
	DB	0fH
	DB	0fH
	DB	0fH
	DB	0fH
	DB	0fH
	DB	0fH
	DB	0fH
	DB	0fH
	DB	0fH
	DB	0fH
	DB	0fH
	DB	0fH
	DB	0fH
	DB	0fH
	DB	0fH
	DB	0fH
	DB	0fH
	DB	0fH
	DB	0fH
	DB	0fH
	DB	0fH
	DB	0fH
	DB	0fH
	DB	00H
	DB	00H
	DB	010H
	DB	011H
	DB	012H
	DB	012H
	DB	013H
	DB	013H
	DB	014H
	DB	014H
	DB	014H
	DB	014H
	DB	015H
	DB	015H
	DB	015H
	DB	015H
	DB	016H
	DB	016H
	DB	016H
	DB	016H
	DB	016H
	DB	016H
	DB	016H
	DB	016H
	DB	017H
	DB	017H
	DB	017H
	DB	017H
	DB	017H
	DB	017H
	DB	017H
	DB	017H
	DB	018H
	DB	018H
	DB	018H
	DB	018H
	DB	018H
	DB	018H
	DB	018H
	DB	018H
	DB	018H
	DB	018H
	DB	018H
	DB	018H
	DB	018H
	DB	018H
	DB	018H
	DB	018H
	DB	019H
	DB	019H
	DB	019H
	DB	019H
	DB	019H
	DB	019H
	DB	019H
	DB	019H
	DB	019H
	DB	019H
	DB	019H
	DB	019H
	DB	019H
	DB	019H
	DB	019H
	DB	019H
	DB	01aH
	DB	01aH
	DB	01aH
	DB	01aH
	DB	01aH
	DB	01aH
	DB	01aH
	DB	01aH
	DB	01aH
	DB	01aH
	DB	01aH
	DB	01aH
	DB	01aH
	DB	01aH
	DB	01aH
	DB	01aH
	DB	01aH
	DB	01aH
	DB	01aH
	DB	01aH
	DB	01aH
	DB	01aH
	DB	01aH
	DB	01aH
	DB	01aH
	DB	01aH
	DB	01aH
	DB	01aH
	DB	01aH
	DB	01aH
	DB	01aH
	DB	01aH
	DB	01bH
	DB	01bH
	DB	01bH
	DB	01bH
	DB	01bH
	DB	01bH
	DB	01bH
	DB	01bH
	DB	01bH
	DB	01bH
	DB	01bH
	DB	01bH
	DB	01bH
	DB	01bH
	DB	01bH
	DB	01bH
	DB	01bH
	DB	01bH
	DB	01bH
	DB	01bH
	DB	01bH
	DB	01bH
	DB	01bH
	DB	01bH
	DB	01bH
	DB	01bH
	DB	01bH
	DB	01bH
	DB	01bH
	DB	01bH
	DB	01bH
	DB	01bH
	DB	01cH
	DB	01cH
	DB	01cH
	DB	01cH
	DB	01cH
	DB	01cH
	DB	01cH
	DB	01cH
	DB	01cH
	DB	01cH
	DB	01cH
	DB	01cH
	DB	01cH
	DB	01cH
	DB	01cH
	DB	01cH
	DB	01cH
	DB	01cH
	DB	01cH
	DB	01cH
	DB	01cH
	DB	01cH
	DB	01cH
	DB	01cH
	DB	01cH
	DB	01cH
	DB	01cH
	DB	01cH
	DB	01cH
	DB	01cH
	DB	01cH
	DB	01cH
	DB	01cH
	DB	01cH
	DB	01cH
	DB	01cH
	DB	01cH
	DB	01cH
	DB	01cH
	DB	01cH
	DB	01cH
	DB	01cH
	DB	01cH
	DB	01cH
	DB	01cH
	DB	01cH
	DB	01cH
	DB	01cH
	DB	01cH
	DB	01cH
	DB	01cH
	DB	01cH
	DB	01cH
	DB	01cH
	DB	01cH
	DB	01cH
	DB	01cH
	DB	01cH
	DB	01cH
	DB	01cH
	DB	01cH
	DB	01cH
	DB	01cH
	DB	01cH
	DB	01dH
	DB	01dH
	DB	01dH
	DB	01dH
	DB	01dH
	DB	01dH
	DB	01dH
	DB	01dH
	DB	01dH
	DB	01dH
	DB	01dH
	DB	01dH
	DB	01dH
	DB	01dH
	DB	01dH
	DB	01dH
	DB	01dH
	DB	01dH
	DB	01dH
	DB	01dH
	DB	01dH
	DB	01dH
	DB	01dH
	DB	01dH
	DB	01dH
	DB	01dH
	DB	01dH
	DB	01dH
	DB	01dH
	DB	01dH
	DB	01dH
	DB	01dH
	DB	01dH
	DB	01dH
	DB	01dH
	DB	01dH
	DB	01dH
	DB	01dH
	DB	01dH
	DB	01dH
	DB	01dH
	DB	01dH
	DB	01dH
	DB	01dH
	DB	01dH
	DB	01dH
	DB	01dH
	DB	01dH
	DB	01dH
	DB	01dH
	DB	01dH
	DB	01dH
	DB	01dH
	DB	01dH
	DB	01dH
	DB	01dH
	DB	01dH
	DB	01dH
	DB	01dH
	DB	01dH
	DB	01dH
	DB	01dH
	DB	01dH
	DB	01dH
static_dtree DW	00H
	DW	05H
	DW	010H
	DW	05H
	DW	08H
	DW	05H
	DW	018H
	DW	05H
	DW	04H
	DW	05H
	DW	014H
	DW	05H
	DW	0cH
	DW	05H
	DW	01cH
	DW	05H
	DW	02H
	DW	05H
	DW	012H
	DW	05H
	DW	0aH
	DW	05H
	DW	01aH
	DW	05H
	DW	06H
	DW	05H
	DW	016H
	DW	05H
	DW	0eH
	DW	05H
	DW	01eH
	DW	05H
	DW	01H
	DW	05H
	DW	011H
	DW	05H
	DW	09H
	DW	05H
	DW	019H
	DW	05H
	DW	05H
	DW	05H
	DW	015H
	DW	05H
	DW	0dH
	DW	05H
	DW	01dH
	DW	05H
	DW	03H
	DW	05H
	DW	013H
	DW	05H
	DW	0bH
	DW	05H
	DW	01bH
	DW	05H
	DW	07H
	DW	05H
	DW	017H
	DW	05H
	ORG $+8
extra_blbits DD	00H
	DD	00H
	DD	00H
	DD	00H
	DD	00H
	DD	00H
	DD	00H
	DD	00H
	DD	00H
	DD	00H
	DD	00H
	DD	00H
	DD	00H
	DD	00H
	DD	00H
	DD	00H
	DD	02H
	DD	03H
	DD	07H
	ORG $+4
extra_lbits DD	00H
	DD	00H
	DD	00H
	DD	00H
	DD	00H
	DD	00H
	DD	00H
	DD	00H
	DD	01H
	DD	01H
	DD	01H
	DD	01H
	DD	02H
	DD	02H
	DD	02H
	DD	02H
	DD	03H
	DD	03H
	DD	03H
	DD	03H
	DD	04H
	DD	04H
	DD	04H
	DD	04H
	DD	05H
	DD	05H
	DD	05H
	DD	05H
	DD	00H
	ORG $+12
base_dist DD	00H
	DD	01H
	DD	02H
	DD	03H
	DD	04H
	DD	06H
	DD	08H
	DD	0cH
	DD	010H
	DD	018H
	DD	020H
	DD	030H
	DD	040H
	DD	060H
	DD	080H
	DD	0c0H
	DD	0100H
	DD	0180H
	DD	0200H
	DD	0300H
	DD	0400H
	DD	0600H
	DD	0800H
	DD	0c00H
	DD	01000H
	DD	01800H
	DD	02000H
	DD	03000H
	DD	04000H
	DD	06000H
	ORG $+8
base_length DD	00H
	DD	01H
	DD	02H
	DD	03H
	DD	04H
	DD	05H
	DD	06H
	DD	07H
	DD	08H
	DD	0aH
	DD	0cH
	DD	0eH
	DD	010H
	DD	014H
	DD	018H
	DD	01cH
	DD	020H
	DD	028H
	DD	030H
	DD	038H
	DD	040H
	DD	050H
	DD	060H
	DD	070H
	DD	080H
	DD	0a0H
	DD	0c0H
	DD	0e0H
	DD	00H
	ORG $+4
static_l_desc DQ FLAT:static_ltree
	DQ	FLAT:extra_lbits
	DD	0101H
	DD	011eH
	DD	0fH
	ORG $+4
static_bl_desc DQ 0000000000000000H
	DQ	FLAT:extra_blbits
	DD	00H
	DD	013H
	DD	07H
	ORG $+4
	ORG $+8
extra_dbits DD	00H
	DD	00H
	DD	00H
	DD	00H
	DD	01H
	DD	01H
	DD	02H
	DD	02H
	DD	03H
	DD	03H
	DD	04H
	DD	04H
	DD	05H
	DD	05H
	DD	06H
	DD	06H
	DD	07H
	DD	07H
	DD	08H
	DD	08H
	DD	09H
	DD	09H
	DD	0aH
	DD	0aH
	DD	0bH
	DD	0bH
	DD	0cH
	DD	0cH
	DD	0dH
	DD	0dH
	ORG $+8
static_ltree DW	0cH
	DW	08H
	DW	08cH
	DW	08H
	DW	04cH
	DW	08H
	DW	0ccH
	DW	08H
	DW	02cH
	DW	08H
	DW	0acH
	DW	08H
	DW	06cH
	DW	08H
	DW	0ecH
	DW	08H
	DW	01cH
	DW	08H
	DW	09cH
	DW	08H
	DW	05cH
	DW	08H
	DW	0dcH
	DW	08H
	DW	03cH
	DW	08H
	DW	0bcH
	DW	08H
	DW	07cH
	DW	08H
	DW	0fcH
	DW	08H
	DW	02H
	DW	08H
	DW	082H
	DW	08H
	DW	042H
	DW	08H
	DW	0c2H
	DW	08H
	DW	022H
	DW	08H
	DW	0a2H
	DW	08H
	DW	062H
	DW	08H
	DW	0e2H
	DW	08H
	DW	012H
	DW	08H
	DW	092H
	DW	08H
	DW	052H
	DW	08H
	DW	0d2H
	DW	08H
	DW	032H
	DW	08H
	DW	0b2H
	DW	08H
	DW	072H
	DW	08H
	DW	0f2H
	DW	08H
	DW	0aH
	DW	08H
	DW	08aH
	DW	08H
	DW	04aH
	DW	08H
	DW	0caH
	DW	08H
	DW	02aH
	DW	08H
	DW	0aaH
	DW	08H
	DW	06aH
	DW	08H
	DW	0eaH
	DW	08H
	DW	01aH
	DW	08H
	DW	09aH
	DW	08H
	DW	05aH
	DW	08H
	DW	0daH
	DW	08H
	DW	03aH
	DW	08H
	DW	0baH
	DW	08H
	DW	07aH
	DW	08H
	DW	0faH
	DW	08H
	DW	06H
	DW	08H
	DW	086H
	DW	08H
	DW	046H
	DW	08H
	DW	0c6H
	DW	08H
	DW	026H
	DW	08H
	DW	0a6H
	DW	08H
	DW	066H
	DW	08H
	DW	0e6H
	DW	08H
	DW	016H
	DW	08H
	DW	096H
	DW	08H
	DW	056H
	DW	08H
	DW	0d6H
	DW	08H
	DW	036H
	DW	08H
	DW	0b6H
	DW	08H
	DW	076H
	DW	08H
	DW	0f6H
	DW	08H
	DW	0eH
	DW	08H
	DW	08eH
	DW	08H
	DW	04eH
	DW	08H
	DW	0ceH
	DW	08H
	DW	02eH
	DW	08H
	DW	0aeH
	DW	08H
	DW	06eH
	DW	08H
	DW	0eeH
	DW	08H
	DW	01eH
	DW	08H
	DW	09eH
	DW	08H
	DW	05eH
	DW	08H
	DW	0deH
	DW	08H
	DW	03eH
	DW	08H
	DW	0beH
	DW	08H
	DW	07eH
	DW	08H
	DW	0feH
	DW	08H
	DW	01H
	DW	08H
	DW	081H
	DW	08H
	DW	041H
	DW	08H
	DW	0c1H
	DW	08H
	DW	021H
	DW	08H
	DW	0a1H
	DW	08H
	DW	061H
	DW	08H
	DW	0e1H
	DW	08H
	DW	011H
	DW	08H
	DW	091H
	DW	08H
	DW	051H
	DW	08H
	DW	0d1H
	DW	08H
	DW	031H
	DW	08H
	DW	0b1H
	DW	08H
	DW	071H
	DW	08H
	DW	0f1H
	DW	08H
	DW	09H
	DW	08H
	DW	089H
	DW	08H
	DW	049H
	DW	08H
	DW	0c9H
	DW	08H
	DW	029H
	DW	08H
	DW	0a9H
	DW	08H
	DW	069H
	DW	08H
	DW	0e9H
	DW	08H
	DW	019H
	DW	08H
	DW	099H
	DW	08H
	DW	059H
	DW	08H
	DW	0d9H
	DW	08H
	DW	039H
	DW	08H
	DW	0b9H
	DW	08H
	DW	079H
	DW	08H
	DW	0f9H
	DW	08H
	DW	05H
	DW	08H
	DW	085H
	DW	08H
	DW	045H
	DW	08H
	DW	0c5H
	DW	08H
	DW	025H
	DW	08H
	DW	0a5H
	DW	08H
	DW	065H
	DW	08H
	DW	0e5H
	DW	08H
	DW	015H
	DW	08H
	DW	095H
	DW	08H
	DW	055H
	DW	08H
	DW	0d5H
	DW	08H
	DW	035H
	DW	08H
	DW	0b5H
	DW	08H
	DW	075H
	DW	08H
	DW	0f5H
	DW	08H
	DW	0dH
	DW	08H
	DW	08dH
	DW	08H
	DW	04dH
	DW	08H
	DW	0cdH
	DW	08H
	DW	02dH
	DW	08H
	DW	0adH
	DW	08H
	DW	06dH
	DW	08H
	DW	0edH
	DW	08H
	DW	01dH
	DW	08H
	DW	09dH
	DW	08H
	DW	05dH
	DW	08H
	DW	0ddH
	DW	08H
	DW	03dH
	DW	08H
	DW	0bdH
	DW	08H
	DW	07dH
	DW	08H
	DW	0fdH
	DW	08H
	DW	013H
	DW	09H
	DW	0113H
	DW	09H
	DW	093H
	DW	09H
	DW	0193H
	DW	09H
	DW	053H
	DW	09H
	DW	0153H
	DW	09H
	DW	0d3H
	DW	09H
	DW	01d3H
	DW	09H
	DW	033H
	DW	09H
	DW	0133H
	DW	09H
	DW	0b3H
	DW	09H
	DW	01b3H
	DW	09H
	DW	073H
	DW	09H
	DW	0173H
	DW	09H
	DW	0f3H
	DW	09H
	DW	01f3H
	DW	09H
	DW	0bH
	DW	09H
	DW	010bH
	DW	09H
	DW	08bH
	DW	09H
	DW	018bH
	DW	09H
	DW	04bH
	DW	09H
	DW	014bH
	DW	09H
	DW	0cbH
	DW	09H
	DW	01cbH
	DW	09H
	DW	02bH
	DW	09H
	DW	012bH
	DW	09H
	DW	0abH
	DW	09H
	DW	01abH
	DW	09H
	DW	06bH
	DW	09H
	DW	016bH
	DW	09H
	DW	0ebH
	DW	09H
	DW	01ebH
	DW	09H
	DW	01bH
	DW	09H
	DW	011bH
	DW	09H
	DW	09bH
	DW	09H
	DW	019bH
	DW	09H
	DW	05bH
	DW	09H
	DW	015bH
	DW	09H
	DW	0dbH
	DW	09H
	DW	01dbH
	DW	09H
	DW	03bH
	DW	09H
	DW	013bH
	DW	09H
	DW	0bbH
	DW	09H
	DW	01bbH
	DW	09H
	DW	07bH
	DW	09H
	DW	017bH
	DW	09H
	DW	0fbH
	DW	09H
	DW	01fbH
	DW	09H
	DW	07H
	DW	09H
	DW	0107H
	DW	09H
	DW	087H
	DW	09H
	DW	0187H
	DW	09H
	DW	047H
	DW	09H
	DW	0147H
	DW	09H
	DW	0c7H
	DW	09H
	DW	01c7H
	DW	09H
	DW	027H
	DW	09H
	DW	0127H
	DW	09H
	DW	0a7H
	DW	09H
	DW	01a7H
	DW	09H
	DW	067H
	DW	09H
	DW	0167H
	DW	09H
	DW	0e7H
	DW	09H
	DW	01e7H
	DW	09H
	DW	017H
	DW	09H
	DW	0117H
	DW	09H
	DW	097H
	DW	09H
	DW	0197H
	DW	09H
	DW	057H
	DW	09H
	DW	0157H
	DW	09H
	DW	0d7H
	DW	09H
	DW	01d7H
	DW	09H
	DW	037H
	DW	09H
	DW	0137H
	DW	09H
	DW	0b7H
	DW	09H
	DW	01b7H
	DW	09H
	DW	077H
	DW	09H
	DW	0177H
	DW	09H
	DW	0f7H
	DW	09H
	DW	01f7H
	DW	09H
	DW	0fH
	DW	09H
	DW	010fH
	DW	09H
	DW	08fH
	DW	09H
	DW	018fH
	DW	09H
	DW	04fH
	DW	09H
	DW	014fH
	DW	09H
	DW	0cfH
	DW	09H
	DW	01cfH
	DW	09H
	DW	02fH
	DW	09H
	DW	012fH
	DW	09H
	DW	0afH
	DW	09H
	DW	01afH
	DW	09H
	DW	06fH
	DW	09H
	DW	016fH
	DW	09H
	DW	0efH
	DW	09H
	DW	01efH
	DW	09H
	DW	01fH
	DW	09H
	DW	011fH
	DW	09H
	DW	09fH
	DW	09H
	DW	019fH
	DW	09H
	DW	05fH
	DW	09H
	DW	015fH
	DW	09H
	DW	0dfH
	DW	09H
	DW	01dfH
	DW	09H
	DW	03fH
	DW	09H
	DW	013fH
	DW	09H
	DW	0bfH
	DW	09H
	DW	01bfH
	DW	09H
	DW	07fH
	DW	09H
	DW	017fH
	DW	09H
	DW	0ffH
	DW	09H
	DW	01ffH
	DW	09H
	DW	00H
	DW	07H
	DW	040H
	DW	07H
	DW	020H
	DW	07H
	DW	060H
	DW	07H
	DW	010H
	DW	07H
	DW	050H
	DW	07H
	DW	030H
	DW	07H
	DW	070H
	DW	07H
	DW	08H
	DW	07H
	DW	048H
	DW	07H
	DW	028H
	DW	07H
	DW	068H
	DW	07H
	DW	018H
	DW	07H
	DW	058H
	DW	07H
	DW	038H
	DW	07H
	DW	078H
	DW	07H
	DW	04H
	DW	07H
	DW	044H
	DW	07H
	DW	024H
	DW	07H
	DW	064H
	DW	07H
	DW	014H
	DW	07H
	DW	054H
	DW	07H
	DW	034H
	DW	07H
	DW	074H
	DW	07H
	DW	03H
	DW	08H
	DW	083H
	DW	08H
	DW	043H
	DW	08H
	DW	0c3H
	DW	08H
	DW	023H
	DW	08H
	DW	0a3H
	DW	08H
	DW	063H
	DW	08H
	DW	0e3H
	DW	08H
static_d_desc DQ FLAT:static_dtree
	DQ	FLAT:extra_dbits
	DD	00H
	DD	01eH
	DD	0fH
	ORG $+4
bl_order DB	010H
	DB	011H
	DB	012H
	DB	00H
	DB	08H
	DB	07H
	DB	09H
	DB	06H
	DB	0aH
	DB	05H
	DB	0bH
	DB	04H
	DB	0cH
	DB	03H
	DB	0dH
	DB	02H
	DB	0eH
	DB	01H
	DB	0fH
PUBLIC	_tr_align
PUBLIC	_tr_init
PUBLIC	_tr_flush_block
PUBLIC	_tr_flush_bits
PUBLIC	_tr_stored_block
;	COMDAT pdata
pdata	SEGMENT
$pdata$compress_block DD imagerel compress_block
	DD	imagerel compress_block+6
	DD	imagerel $unwind$compress_block
pdata	ENDS
;	COMDAT pdata
pdata	SEGMENT
$pdata$2$compress_block DD imagerel compress_block+6
	DD	imagerel compress_block+46
	DD	imagerel $chain$2$compress_block
pdata	ENDS
;	COMDAT pdata
pdata	SEGMENT
$pdata$6$compress_block DD imagerel compress_block+46
	DD	imagerel compress_block+920
	DD	imagerel $chain$6$compress_block
pdata	ENDS
;	COMDAT pdata
pdata	SEGMENT
$pdata$7$compress_block DD imagerel compress_block+920
	DD	imagerel compress_block+973
	DD	imagerel $chain$7$compress_block
pdata	ENDS
;	COMDAT pdata
pdata	SEGMENT
$pdata$8$compress_block DD imagerel compress_block+973
	DD	imagerel compress_block+1109
	DD	imagerel $chain$8$compress_block
pdata	ENDS
;	COMDAT pdata
pdata	SEGMENT
$pdata$send_all_trees DD imagerel send_all_trees
	DD	imagerel send_all_trees+659
	DD	imagerel $unwind$send_all_trees
pdata	ENDS
;	COMDAT pdata
pdata	SEGMENT
$pdata$build_bl_tree DD imagerel build_bl_tree
	DD	imagerel build_bl_tree+193
	DD	imagerel $unwind$build_bl_tree
pdata	ENDS
;	COMDAT pdata
pdata	SEGMENT
$pdata$send_tree DD imagerel send_tree
	DD	imagerel send_tree+21
	DD	imagerel $unwind$send_tree
pdata	ENDS
;	COMDAT pdata
pdata	SEGMENT
$pdata$6$send_tree DD imagerel send_tree+21
	DD	imagerel send_tree+1390
	DD	imagerel $chain$6$send_tree
pdata	ENDS
;	COMDAT pdata
pdata	SEGMENT
$pdata$7$send_tree DD imagerel send_tree+1390
	DD	imagerel send_tree+1391
	DD	imagerel $chain$7$send_tree
pdata	ENDS
;	COMDAT pdata
pdata	SEGMENT
$pdata$scan_tree DD imagerel scan_tree
	DD	imagerel scan_tree+38
	DD	imagerel $unwind$scan_tree
pdata	ENDS
;	COMDAT pdata
pdata	SEGMENT
$pdata$2$scan_tree DD imagerel scan_tree+38
	DD	imagerel scan_tree+259
	DD	imagerel $chain$2$scan_tree
pdata	ENDS
;	COMDAT pdata
pdata	SEGMENT
$pdata$3$scan_tree DD imagerel scan_tree+259
	DD	imagerel scan_tree+261
	DD	imagerel $chain$3$scan_tree
pdata	ENDS
;	COMDAT pdata
pdata	SEGMENT
$pdata$build_tree DD imagerel build_tree
	DD	imagerel build_tree+572
	DD	imagerel $unwind$build_tree
pdata	ENDS
;	COMDAT pdata
pdata	SEGMENT
$pdata$gen_codes DD imagerel gen_codes
	DD	imagerel gen_codes+285
	DD	imagerel $unwind$gen_codes
pdata	ENDS
;	COMDAT pdata
pdata	SEGMENT
$pdata$gen_bitlen DD imagerel gen_bitlen
	DD	imagerel gen_bitlen+120
	DD	imagerel $unwind$gen_bitlen
pdata	ENDS
;	COMDAT pdata
pdata	SEGMENT
$pdata$0$gen_bitlen DD imagerel gen_bitlen+120
	DD	imagerel gen_bitlen+128
	DD	imagerel $chain$0$gen_bitlen
pdata	ENDS
;	COMDAT pdata
pdata	SEGMENT
$pdata$2$gen_bitlen DD imagerel gen_bitlen+128
	DD	imagerel gen_bitlen+318
	DD	imagerel $chain$2$gen_bitlen
pdata	ENDS
;	COMDAT pdata
pdata	SEGMENT
$pdata$3$gen_bitlen DD imagerel gen_bitlen+318
	DD	imagerel gen_bitlen+519
	DD	imagerel $chain$3$gen_bitlen
pdata	ENDS
;	COMDAT pdata
pdata	SEGMENT
$pdata$4$gen_bitlen DD imagerel gen_bitlen+519
	DD	imagerel gen_bitlen+527
	DD	imagerel $chain$4$gen_bitlen
pdata	ENDS
;	COMDAT pdata
pdata	SEGMENT
$pdata$pqdownheap DD imagerel pqdownheap
	DD	imagerel pqdownheap+36
	DD	imagerel $unwind$pqdownheap
pdata	ENDS
;	COMDAT pdata
pdata	SEGMENT
$pdata$0$pqdownheap DD imagerel pqdownheap+36
	DD	imagerel pqdownheap+188
	DD	imagerel $chain$0$pqdownheap
pdata	ENDS
;	COMDAT pdata
pdata	SEGMENT
$pdata$2$pqdownheap DD imagerel pqdownheap+188
	DD	imagerel pqdownheap+210
	DD	imagerel $chain$2$pqdownheap
pdata	ENDS
;	COMDAT pdata
pdata	SEGMENT
$pdata$3$pqdownheap DD imagerel pqdownheap+210
	DD	imagerel pqdownheap+225
	DD	imagerel $chain$3$pqdownheap
pdata	ENDS
;	COMDAT pdata
pdata	SEGMENT
$pdata$_tr_flush_block DD imagerel $LN19
	DD	imagerel $LN19+564
	DD	imagerel $unwind$_tr_flush_block
pdata	ENDS
;	COMDAT pdata
pdata	SEGMENT
$pdata$_tr_stored_block DD imagerel $LN8
	DD	imagerel $LN8+263
	DD	imagerel $unwind$_tr_stored_block
;	COMDAT xdata
xdata	SEGMENT
$unwind$_tr_stored_block DD 040a01H
	DD	06340aH
	DD	07006320aH
xdata	ENDS
;	COMDAT xdata
xdata	SEGMENT
$unwind$_tr_flush_block DD 081401H
	DD	086414H
	DD	075414H
	DD	063414H
	DD	070103214H
xdata	ENDS
;	COMDAT xdata
xdata	SEGMENT
$chain$3$pqdownheap DD 021H
	DD	imagerel pqdownheap
	DD	imagerel pqdownheap+36
	DD	imagerel $unwind$pqdownheap
xdata	ENDS
;	COMDAT xdata
xdata	SEGMENT
$chain$2$pqdownheap DD 020021H
	DD	026400H
	DD	imagerel pqdownheap
	DD	imagerel pqdownheap+36
	DD	imagerel $unwind$pqdownheap
xdata	ENDS
;	COMDAT xdata
xdata	SEGMENT
$chain$0$pqdownheap DD 020521H
	DD	026405H
	DD	imagerel pqdownheap
	DD	imagerel pqdownheap+36
	DD	imagerel $unwind$pqdownheap
xdata	ENDS
;	COMDAT xdata
xdata	SEGMENT
$unwind$pqdownheap DD 030601H
	DD	033406H
	DD	07006H
xdata	ENDS
;	COMDAT xdata
xdata	SEGMENT
$chain$4$gen_bitlen DD 021H
	DD	imagerel gen_bitlen
	DD	imagerel gen_bitlen+120
	DD	imagerel $unwind$gen_bitlen
xdata	ENDS
;	COMDAT xdata
xdata	SEGMENT
$chain$3$gen_bitlen DD 021H
	DD	imagerel gen_bitlen+120
	DD	imagerel gen_bitlen+128
	DD	imagerel $chain$0$gen_bitlen
xdata	ENDS
;	COMDAT xdata
xdata	SEGMENT
$chain$2$gen_bitlen DD 040d21H
	DD	09e40dH
	DD	08c405H
	DD	imagerel gen_bitlen+120
	DD	imagerel gen_bitlen+128
	DD	imagerel $chain$0$gen_bitlen
xdata	ENDS
;	COMDAT xdata
xdata	SEGMENT
$chain$0$gen_bitlen DD 020521H
	DD	073405H
	DD	imagerel gen_bitlen
	DD	imagerel gen_bitlen+120
	DD	imagerel $unwind$gen_bitlen
xdata	ENDS
;	COMDAT xdata
xdata	SEGMENT
$unwind$gen_bitlen DD 050801H
	DD	0d006f008H
	DD	060037004H
	DD	05002H
xdata	ENDS
;	COMDAT xdata
xdata	SEGMENT
$unwind$gen_codes DD 010401H
	DD	08204H
xdata	ENDS
;	COMDAT xdata
xdata	SEGMENT
$unwind$build_tree DD 0a1801H
	DD	0a6418H
	DD	095418H
	DD	083418H
	DD	0f0143218H
	DD	07010e012H
xdata	ENDS
;	COMDAT xdata
xdata	SEGMENT
$chain$3$scan_tree DD 021H
	DD	imagerel scan_tree
	DD	imagerel scan_tree+38
	DD	imagerel $unwind$scan_tree
xdata	ENDS
;	COMDAT xdata
xdata	SEGMENT
$chain$2$scan_tree DD 061e21H
	DD	04741eH
	DD	03640eH
	DD	025405H
	DD	imagerel scan_tree
	DD	imagerel scan_tree+38
	DD	imagerel $unwind$scan_tree
xdata	ENDS
;	COMDAT xdata
xdata	SEGMENT
$unwind$scan_tree DD 010201H
	DD	03002H
xdata	ENDS
;	COMDAT xdata
xdata	SEGMENT
$chain$7$send_tree DD 021H
	DD	imagerel send_tree
	DD	imagerel send_tree+21
	DD	imagerel $unwind$send_tree
xdata	ENDS
;	COMDAT xdata
xdata	SEGMENT
$chain$6$send_tree DD 0e4521H
	DD	0f445H
	DD	01e43fH
	DD	02d430H
	DD	03c41fH
	DD	087414H
	DD	07640cH
	DD	063405H
	DD	imagerel send_tree
	DD	imagerel send_tree+21
	DD	imagerel $unwind$send_tree
xdata	ENDS
;	COMDAT xdata
xdata	SEGMENT
$unwind$send_tree DD 020e01H
	DD	0500a320eH
xdata	ENDS
;	COMDAT xdata
xdata	SEGMENT
$unwind$build_bl_tree DD 020601H
	DD	030023206H
xdata	ENDS
;	COMDAT xdata
xdata	SEGMENT
$unwind$send_all_trees DD 0a1801H
	DD	0a6418H
	DD	095418H
	DD	083418H
	DD	0f0143218H
	DD	07010e012H
xdata	ENDS
;	COMDAT xdata
xdata	SEGMENT
$chain$8$compress_block DD 021H
	DD	imagerel compress_block
	DD	imagerel compress_block+6
	DD	imagerel $unwind$compress_block
xdata	ENDS
;	COMDAT xdata
xdata	SEGMENT
$chain$7$compress_block DD 021H
	DD	imagerel compress_block+6
	DD	imagerel compress_block+46
	DD	imagerel $chain$2$compress_block
xdata	ENDS
;	COMDAT xdata
xdata	SEGMENT
$chain$6$compress_block DD 081b21H
	DD	01e41bH
	DD	086416H
	DD	063411H
	DD	02d405H
	DD	imagerel compress_block+6
	DD	imagerel compress_block+46
	DD	imagerel $chain$2$compress_block
xdata	ENDS
;	COMDAT xdata
xdata	SEGMENT
$chain$2$compress_block DD 061621H
	DD	0f416H
	DD	03c40fH
	DD	075405H
	DD	imagerel compress_block
	DD	imagerel compress_block+6
	DD	imagerel $unwind$compress_block
xdata	ENDS
;	COMDAT xdata
xdata	SEGMENT
$unwind$compress_block DD 020601H
	DD	070023206H
; Function compile flags: /Ogtpy
; File G:\1_Projects\BRDF\DisneyBRDF\zlib-1.2.12\trees.c
;	COMDAT _tr_stored_block
_TEXT	SEGMENT
s$ = 48
buf$ = 56
stored_len$ = 64
last$ = 72
_tr_stored_block PROC					; COMDAT

; 868  : {

$LN8:
  00000	48 89 5c 24 08	 mov	 QWORD PTR [rsp+8], rbx
  00005	57		 push	 rdi
  00006	48 83 ec 20	 sub	 rsp, 32			; 00000020H
  0000a	48 8b d9	 mov	 rbx, rcx
  0000d	41 8b f8	 mov	 edi, r8d

; 869  :     send_bits(s, (STORED_BLOCK<<1)+last, 3);    /* send block type */

  00010	8b 89 10 17 00
	00		 mov	 ecx, DWORD PTR [rcx+5904]
  00016	4c 8b d2	 mov	 r10, rdx
  00019	44 0f b7 83 0c
	17 00 00	 movzx	 r8d, WORD PTR [rbx+5900]
  00021	83 f9 0d	 cmp	 ecx, 13
  00024	7e 4e		 jle	 SHORT $LN2@tr_stored_
  00026	48 8b 43 10	 mov	 rax, QWORD PTR [rbx+16]
  0002a	41 0f b7 d1	 movzx	 edx, r9w
  0002e	66 d3 e2	 shl	 dx, cl
  00031	8b 4b 28	 mov	 ecx, DWORD PTR [rbx+40]
  00034	66 41 0b d0	 or	 dx, r8w
  00038	66 89 93 0c 17
	00 00		 mov	 WORD PTR [rbx+5900], dx
  0003f	88 14 01	 mov	 BYTE PTR [rcx+rax], dl
  00042	ff 43 28	 inc	 DWORD PTR [rbx+40]
  00045	8b 53 28	 mov	 edx, DWORD PTR [rbx+40]
  00048	48 8b 4b 10	 mov	 rcx, QWORD PTR [rbx+16]
  0004c	0f b6 83 0d 17
	00 00		 movzx	 eax, BYTE PTR [rbx+5901]
  00053	88 04 0a	 mov	 BYTE PTR [rdx+rcx], al
  00056	b9 10 00 00 00	 mov	 ecx, 16
  0005b	0f b7 83 10 17
	00 00		 movzx	 eax, WORD PTR [rbx+5904]
  00062	ff 43 28	 inc	 DWORD PTR [rbx+40]
  00065	2a c8		 sub	 cl, al
  00067	83 83 10 17 00
	00 f3		 add	 DWORD PTR [rbx+5904], -13
  0006e	66 41 d3 e9	 shr	 r9w, cl
  00072	eb 11		 jmp	 SHORT $LN3@tr_stored_
$LN2@tr_stored_:
  00074	8d 41 03	 lea	 eax, DWORD PTR [rcx+3]
  00077	66 41 d3 e1	 shl	 r9w, cl
  0007b	89 83 10 17 00
	00		 mov	 DWORD PTR [rbx+5904], eax
  00081	66 45 0b c8	 or	 r9w, r8w
$LN3@tr_stored_:

; 870  :     bi_windup(s);        /* align on byte boundary */

  00085	48 8b cb	 mov	 rcx, rbx
  00088	66 44 89 8b 0c
	17 00 00	 mov	 WORD PTR [rbx+5900], r9w
  00090	e8 00 00 00 00	 call	 bi_windup

; 871  :     put_short(s, (ush)stored_len);

  00095	8b 4b 28	 mov	 ecx, DWORD PTR [rbx+40]
  00098	48 8b 43 10	 mov	 rax, QWORD PTR [rbx+16]
  0009c	40 88 3c 01	 mov	 BYTE PTR [rcx+rax], dil
  000a0	0f b7 cf	 movzx	 ecx, di
  000a3	ff 43 28	 inc	 DWORD PTR [rbx+40]
  000a6	8b 53 28	 mov	 edx, DWORD PTR [rbx+40]
  000a9	48 8b 43 10	 mov	 rax, QWORD PTR [rbx+16]
  000ad	66 c1 e9 08	 shr	 cx, 8
  000b1	88 0c 02	 mov	 BYTE PTR [rdx+rax], cl

; 872  :     put_short(s, (ush)~stored_len);

  000b4	40 0f b6 cf	 movzx	 ecx, dil
  000b8	ff 43 28	 inc	 DWORD PTR [rbx+40]
  000bb	f6 d1		 not	 cl
  000bd	8b 53 28	 mov	 edx, DWORD PTR [rbx+40]
  000c0	48 8b 43 10	 mov	 rax, QWORD PTR [rbx+16]
  000c4	88 0c 02	 mov	 BYTE PTR [rdx+rax], cl
  000c7	0f b7 cf	 movzx	 ecx, di
  000ca	ff 43 28	 inc	 DWORD PTR [rbx+40]
  000cd	66 f7 d1	 not	 cx
  000d0	8b 53 28	 mov	 edx, DWORD PTR [rbx+40]
  000d3	48 8b 43 10	 mov	 rax, QWORD PTR [rbx+16]
  000d7	66 c1 e9 08	 shr	 cx, 8
  000db	88 0c 02	 mov	 BYTE PTR [rdx+rax], cl
  000de	8b 4b 28	 mov	 ecx, DWORD PTR [rbx+40]
  000e1	ff c1		 inc	 ecx
  000e3	89 4b 28	 mov	 DWORD PTR [rbx+40], ecx

; 873  :     if (stored_len)

  000e6	85 ff		 test	 edi, edi
  000e8	74 0f		 je	 SHORT $LN6@tr_stored_

; 874  :         zmemcpy(s->pending_buf + s->pending, (Bytef *)buf, stored_len);

  000ea	48 03 4b 10	 add	 rcx, QWORD PTR [rbx+16]
  000ee	4c 8b c7	 mov	 r8, rdi
  000f1	49 8b d2	 mov	 rdx, r10
  000f4	e8 00 00 00 00	 call	 memcpy
$LN6@tr_stored_:

; 875  :     s->pending += stored_len;
; 876  : #ifdef ZLIB_DEBUG
; 877  :     s->compressed_len = (s->compressed_len + 3 + 7) & (ulg)~7L;
; 878  :     s->compressed_len += (stored_len + 4) << 3;
; 879  :     s->bits_sent += 2*16;
; 880  :     s->bits_sent += stored_len<<3;
; 881  : #endif
; 882  : }

  000f9	01 7b 28	 add	 DWORD PTR [rbx+40], edi
  000fc	48 8b 5c 24 30	 mov	 rbx, QWORD PTR [rsp+48]
  00101	48 83 c4 20	 add	 rsp, 32			; 00000020H
  00105	5f		 pop	 rdi
  00106	c3		 ret	 0
_tr_stored_block ENDP
_TEXT	ENDS
; Function compile flags: /Ogtpy
; File G:\1_Projects\BRDF\DisneyBRDF\zlib-1.2.12\trees.c
;	COMDAT _tr_flush_bits
_TEXT	SEGMENT
s$ = 8
_tr_flush_bits PROC					; COMDAT

; 890  :     bi_flush(s);

  00000	e9 00 00 00 00	 jmp	 bi_flush
_tr_flush_bits ENDP
_TEXT	ENDS
; Function compile flags: /Ogtpy
; File G:\1_Projects\BRDF\DisneyBRDF\zlib-1.2.12\trees.c
;	COMDAT _tr_flush_block
_TEXT	SEGMENT
s$ = 48
buf$ = 56
stored_len$ = 64
last$ = 72
_tr_flush_block PROC					; COMDAT

; 917  : {

$LN19:
  00000	48 89 5c 24 08	 mov	 QWORD PTR [rsp+8], rbx
  00005	48 89 6c 24 10	 mov	 QWORD PTR [rsp+16], rbp
  0000a	48 89 74 24 18	 mov	 QWORD PTR [rsp+24], rsi
  0000f	57		 push	 rdi
  00010	48 83 ec 20	 sub	 rsp, 32			; 00000020H

; 918  :     ulg opt_lenb, static_lenb; /* opt_len and static_len in bytes */
; 919  :     int max_blindex = 0;  /* index of last bit length code of non zero freq */

  00014	45 33 d2	 xor	 r10d, r10d
  00017	41 8b f9	 mov	 edi, r9d
  0001a	41 8b f0	 mov	 esi, r8d
  0001d	48 8b ea	 mov	 rbp, rdx
  00020	48 8b d9	 mov	 rbx, rcx

; 920  : 
; 921  :     /* Build the Huffman trees unless a stored block is forced */
; 922  :     if (s->level > 0) {

  00023	44 39 91 ac 00
	00 00		 cmp	 DWORD PTR [rcx+172], r10d
  0002a	7e 5f		 jle	 SHORT $LN2@tr_flush_b

; 923  : 
; 924  :         /* Check if the file is binary or text */
; 925  :         if (s->strm->data_type == Z_UNKNOWN)

  0002c	4c 8b 11	 mov	 r10, QWORD PTR [rcx]
  0002f	41 83 7a 48 02	 cmp	 DWORD PTR [r10+72], 2
  00034	75 09		 jne	 SHORT $LN4@tr_flush_b

; 926  :             s->strm->data_type = detect_data_type(s);

  00036	e8 00 00 00 00	 call	 detect_data_type
  0003b	41 89 42 48	 mov	 DWORD PTR [r10+72], eax
$LN4@tr_flush_b:

; 927  : 
; 928  :         /* Construct the literal and distance trees */
; 929  :         build_tree(s, (tree_desc *)(&(s->l_desc)));

  0003f	48 8d 93 40 0b
	00 00		 lea	 rdx, QWORD PTR [rbx+2880]
  00046	48 8b cb	 mov	 rcx, rbx
  00049	e8 00 00 00 00	 call	 build_tree

; 930  :         Tracev((stderr, "\nlit data: dyn %ld, stat %ld", s->opt_len,
; 931  :                 s->static_len));
; 932  : 
; 933  :         build_tree(s, (tree_desc *)(&(s->d_desc)));

  0004e	48 8d 93 58 0b
	00 00		 lea	 rdx, QWORD PTR [rbx+2904]
  00055	48 8b cb	 mov	 rcx, rbx
  00058	e8 00 00 00 00	 call	 build_tree

; 934  :         Tracev((stderr, "\ndist data: dyn %ld, stat %ld", s->opt_len,
; 935  :                 s->static_len));
; 936  :         /* At this point, opt_len and static_len are the total bit lengths of
; 937  :          * the compressed block data, excluding the tree representations.
; 938  :          */
; 939  : 
; 940  :         /* Build the bit length tree for the above two trees, and get the index
; 941  :          * in bl_order of the last bit length code to send.
; 942  :          */
; 943  :         max_blindex = build_bl_tree(s);

  0005d	48 8b cb	 mov	 rcx, rbx
  00060	e8 00 00 00 00	 call	 build_bl_tree

; 944  : 
; 945  :         /* Determine the best encoding. Compute the block lengths in bytes. */
; 946  :         opt_lenb = (s->opt_len+3+7)>>3;

  00065	8b 8b fc 16 00
	00		 mov	 ecx, DWORD PTR [rbx+5884]
  0006b	44 8b d0	 mov	 r10d, eax

; 947  :         static_lenb = (s->static_len+3+7)>>3;

  0006e	8b 93 00 17 00
	00		 mov	 edx, DWORD PTR [rbx+5888]
  00074	83 c1 0a	 add	 ecx, 10
  00077	83 c2 0a	 add	 edx, 10
  0007a	c1 e9 03	 shr	 ecx, 3
  0007d	c1 ea 03	 shr	 edx, 3

; 948  : 
; 949  :         Tracev((stderr, "\nopt %lu(%lu) stat %lu(%lu) stored %lu lit %u ",
; 950  :                 opt_lenb, s->opt_len, static_lenb, s->static_len, stored_len,
; 951  :                 s->sym_next / 3));
; 952  : 
; 953  :         if (static_lenb <= opt_lenb) opt_lenb = static_lenb;
; 954  : 
; 955  :     } else {

  00080	3b d1		 cmp	 edx, ecx
  00082	44 8b c2	 mov	 r8d, edx
  00085	44 0f 47 c1	 cmova	 r8d, ecx
  00089	eb 07		 jmp	 SHORT $LN3@tr_flush_b
$LN2@tr_flush_b:

; 956  :         Assert(buf != (char*)0, "lost buf");
; 957  :         opt_lenb = static_lenb = stored_len + 5; /* force a stored block */

  0008b	41 8d 50 05	 lea	 edx, DWORD PTR [r8+5]
  0008f	44 8b c2	 mov	 r8d, edx
$LN3@tr_flush_b:

; 958  :     }
; 959  : 
; 960  : #ifdef FORCE_STORED
; 961  :     if (buf != (char*)0) { /* force stored block */
; 962  : #else
; 963  :     if (stored_len+4 <= opt_lenb && buf != (char*)0) {

  00092	8d 46 04	 lea	 eax, DWORD PTR [rsi+4]
  00095	41 3b c0	 cmp	 eax, r8d
  00098	77 1b		 ja	 SHORT $LN6@tr_flush_b
  0009a	48 85 ed	 test	 rbp, rbp
  0009d	74 16		 je	 SHORT $LN6@tr_flush_b

; 964  :                        /* 4: two words for the lengths */
; 965  : #endif
; 966  :         /* The test buf != NULL is only necessary if LIT_BUFSIZE > WSIZE.
; 967  :          * Otherwise we can't have processed more than WSIZE input bytes since
; 968  :          * the last block flush, because compression would have been
; 969  :          * successful. If LIT_BUFSIZE <= WSIZE, it is never too late to
; 970  :          * transform a block into a stored block.
; 971  :          */
; 972  :         _tr_stored_block(s, buf, stored_len, last);

  0009f	44 8b cf	 mov	 r9d, edi
  000a2	44 8b c6	 mov	 r8d, esi
  000a5	48 8b d5	 mov	 rdx, rbp
  000a8	48 8b cb	 mov	 rcx, rbx
  000ab	e8 00 00 00 00	 call	 _tr_stored_block
  000b0	e9 59 01 00 00	 jmp	 $LN9@tr_flush_b
$LN6@tr_flush_b:

; 973  : 
; 974  : #ifdef FORCE_STATIC
; 975  :     } else if (static_lenb >= 0) { /* force static trees */
; 976  : #else
; 977  :     } else if (s->strategy == Z_FIXED || static_lenb == opt_lenb) {

  000b5	83 bb b0 00 00
	00 04		 cmp	 DWORD PTR [rbx+176], 4
  000bc	0f 84 b8 00 00
	00		 je	 $LN10@tr_flush_b
  000c2	41 3b d0	 cmp	 edx, r8d
  000c5	0f 84 af 00 00
	00		 je	 $LN10@tr_flush_b

; 981  :                        (const ct_data *)static_dtree);
; 982  : #ifdef ZLIB_DEBUG
; 983  :         s->compressed_len += 3 + s->static_len;
; 984  : #endif
; 985  :     } else {
; 986  :         send_bits(s, (DYN_TREES<<1)+last, 3);

  000cb	8b 8b 10 17 00
	00		 mov	 ecx, DWORD PTR [rbx+5904]
  000d1	44 8d 47 04	 lea	 r8d, DWORD PTR [rdi+4]
  000d5	44 0f b7 8b 0c
	17 00 00	 movzx	 r9d, WORD PTR [rbx+5900]
  000dd	83 f9 0d	 cmp	 ecx, 13
  000e0	7e 4e		 jle	 SHORT $LN13@tr_flush_b
  000e2	48 8b 43 10	 mov	 rax, QWORD PTR [rbx+16]
  000e6	41 0f b7 d0	 movzx	 edx, r8w
  000ea	66 d3 e2	 shl	 dx, cl
  000ed	8b 4b 28	 mov	 ecx, DWORD PTR [rbx+40]
  000f0	66 41 0b d1	 or	 dx, r9w
  000f4	66 89 93 0c 17
	00 00		 mov	 WORD PTR [rbx+5900], dx
  000fb	88 14 01	 mov	 BYTE PTR [rcx+rax], dl
  000fe	ff 43 28	 inc	 DWORD PTR [rbx+40]
  00101	8b 53 28	 mov	 edx, DWORD PTR [rbx+40]
  00104	48 8b 4b 10	 mov	 rcx, QWORD PTR [rbx+16]
  00108	0f b6 83 0d 17
	00 00		 movzx	 eax, BYTE PTR [rbx+5901]
  0010f	88 04 0a	 mov	 BYTE PTR [rdx+rcx], al
  00112	b9 10 00 00 00	 mov	 ecx, 16
  00117	0f b7 83 10 17
	00 00		 movzx	 eax, WORD PTR [rbx+5904]
  0011e	ff 43 28	 inc	 DWORD PTR [rbx+40]
  00121	2a c8		 sub	 cl, al
  00123	83 83 10 17 00
	00 f3		 add	 DWORD PTR [rbx+5904], -13
  0012a	66 41 d3 e8	 shr	 r8w, cl
  0012e	eb 11		 jmp	 SHORT $LN14@tr_flush_b
$LN13@tr_flush_b:
  00130	8d 41 03	 lea	 eax, DWORD PTR [rcx+3]
  00133	66 41 d3 e0	 shl	 r8w, cl
  00137	89 83 10 17 00
	00		 mov	 DWORD PTR [rbx+5904], eax
  0013d	66 45 0b c1	 or	 r8w, r9w
$LN14@tr_flush_b:

; 987  :         send_all_trees(s, s->l_desc.max_code+1, s->d_desc.max_code+1,

  00141	66 44 89 83 0c
	17 00 00	 mov	 WORD PTR [rbx+5900], r8w
  00149	45 8d 4a 01	 lea	 r9d, DWORD PTR [r10+1]
  0014d	44 8b 83 60 0b
	00 00		 mov	 r8d, DWORD PTR [rbx+2912]
  00154	48 8b cb	 mov	 rcx, rbx
  00157	8b 93 48 0b 00
	00		 mov	 edx, DWORD PTR [rbx+2888]
  0015d	41 ff c0	 inc	 r8d
  00160	ff c2		 inc	 edx
  00162	e8 00 00 00 00	 call	 send_all_trees

; 988  :                        max_blindex+1);
; 989  :         compress_block(s, (const ct_data *)s->dyn_ltree,

  00167	4c 8d 83 b0 09
	00 00		 lea	 r8, QWORD PTR [rbx+2480]
  0016e	48 8d 93 bc 00
	00 00		 lea	 rdx, QWORD PTR [rbx+188]
  00175	e9 8c 00 00 00	 jmp	 $LN17@tr_flush_b
$LN10@tr_flush_b:

; 978  : #endif
; 979  :         send_bits(s, (STATIC_TREES<<1)+last, 3);

  0017a	8b 8b 10 17 00
	00		 mov	 ecx, DWORD PTR [rbx+5904]
  00180	44 8d 47 02	 lea	 r8d, DWORD PTR [rdi+2]
  00184	44 0f b7 8b 0c
	17 00 00	 movzx	 r9d, WORD PTR [rbx+5900]
  0018c	83 f9 0d	 cmp	 ecx, 13
  0018f	7e 4e		 jle	 SHORT $LN11@tr_flush_b
  00191	48 8b 43 10	 mov	 rax, QWORD PTR [rbx+16]
  00195	41 0f b7 d0	 movzx	 edx, r8w
  00199	66 d3 e2	 shl	 dx, cl
  0019c	8b 4b 28	 mov	 ecx, DWORD PTR [rbx+40]
  0019f	66 41 0b d1	 or	 dx, r9w
  001a3	66 89 93 0c 17
	00 00		 mov	 WORD PTR [rbx+5900], dx
  001aa	88 14 01	 mov	 BYTE PTR [rcx+rax], dl
  001ad	ff 43 28	 inc	 DWORD PTR [rbx+40]
  001b0	8b 53 28	 mov	 edx, DWORD PTR [rbx+40]
  001b3	48 8b 4b 10	 mov	 rcx, QWORD PTR [rbx+16]
  001b7	0f b6 83 0d 17
	00 00		 movzx	 eax, BYTE PTR [rbx+5901]
  001be	88 04 0a	 mov	 BYTE PTR [rdx+rcx], al
  001c1	b9 10 00 00 00	 mov	 ecx, 16
  001c6	0f b7 83 10 17
	00 00		 movzx	 eax, WORD PTR [rbx+5904]
  001cd	ff 43 28	 inc	 DWORD PTR [rbx+40]
  001d0	2a c8		 sub	 cl, al
  001d2	83 83 10 17 00
	00 f3		 add	 DWORD PTR [rbx+5904], -13
  001d9	66 41 d3 e8	 shr	 r8w, cl
  001dd	eb 11		 jmp	 SHORT $LN12@tr_flush_b
$LN11@tr_flush_b:
  001df	8d 41 03	 lea	 eax, DWORD PTR [rcx+3]
  001e2	66 41 d3 e0	 shl	 r8w, cl
  001e6	89 83 10 17 00
	00		 mov	 DWORD PTR [rbx+5904], eax
  001ec	66 45 0b c1	 or	 r8w, r9w
$LN12@tr_flush_b:

; 980  :         compress_block(s, (const ct_data *)static_ltree,

  001f0	66 44 89 83 0c
	17 00 00	 mov	 WORD PTR [rbx+5900], r8w
  001f8	48 8d 15 00 00
	00 00		 lea	 rdx, OFFSET FLAT:static_ltree
  001ff	4c 8d 05 00 00
	00 00		 lea	 r8, OFFSET FLAT:static_dtree
$LN17@tr_flush_b:

; 990  :                        (const ct_data *)s->dyn_dtree);
; 991  : #ifdef ZLIB_DEBUG
; 992  :         s->compressed_len += 3 + s->opt_len;
; 993  : #endif
; 994  :     }
; 995  :     Assert (s->compressed_len == s->bits_sent, "bad compressed size");
; 996  :     /* The above check is made mod 2^32, for files larger than 512 MB
; 997  :      * and uLong implemented on 32 bits.
; 998  :      */
; 999  :     init_block(s);

  00206	48 8b cb	 mov	 rcx, rbx
  00209	e8 00 00 00 00	 call	 compress_block
$LN9@tr_flush_b:
  0020e	48 8b cb	 mov	 rcx, rbx
  00211	e8 00 00 00 00	 call	 init_block

; 1000 : 
; 1001 :     if (last) {

  00216	85 ff		 test	 edi, edi
  00218	74 05		 je	 SHORT $LN15@tr_flush_b

; 1002 :         bi_windup(s);

  0021a	e8 00 00 00 00	 call	 bi_windup
$LN15@tr_flush_b:

; 1003 : #ifdef ZLIB_DEBUG
; 1004 :         s->compressed_len += 7;  /* align on byte boundary */
; 1005 : #endif
; 1006 :     }
; 1007 :     Tracev((stderr,"\ncomprlen %lu(%lu) ", s->compressed_len>>3,
; 1008 :            s->compressed_len-7*last));
; 1009 : }

  0021f	48 8b 5c 24 30	 mov	 rbx, QWORD PTR [rsp+48]
  00224	48 8b 6c 24 38	 mov	 rbp, QWORD PTR [rsp+56]
  00229	48 8b 74 24 40	 mov	 rsi, QWORD PTR [rsp+64]
  0022e	48 83 c4 20	 add	 rsp, 32			; 00000020H
  00232	5f		 pop	 rdi
  00233	c3		 ret	 0
_tr_flush_block ENDP
_TEXT	ENDS
; Function compile flags: /Ogtpy
; File G:\1_Projects\BRDF\DisneyBRDF\zlib-1.2.12\trees.c
;	COMDAT _tr_init
_TEXT	SEGMENT
s$ = 8
_tr_init PROC						; COMDAT

; 382  :     tr_static_init();
; 383  : 
; 384  :     s->l_desc.dyn_tree = s->dyn_ltree;

  00000	48 8d 81 bc 00
	00 00		 lea	 rax, QWORD PTR [rcx+188]
  00007	48 89 81 40 0b
	00 00		 mov	 QWORD PTR [rcx+2880], rax

; 385  :     s->l_desc.stat_desc = &static_l_desc;

  0000e	48 8d 05 00 00
	00 00		 lea	 rax, OFFSET FLAT:static_l_desc
  00015	48 89 81 50 0b
	00 00		 mov	 QWORD PTR [rcx+2896], rax

; 386  : 
; 387  :     s->d_desc.dyn_tree = s->dyn_dtree;

  0001c	48 8d 81 b0 09
	00 00		 lea	 rax, QWORD PTR [rcx+2480]
  00023	48 89 81 58 0b
	00 00		 mov	 QWORD PTR [rcx+2904], rax

; 388  :     s->d_desc.stat_desc = &static_d_desc;

  0002a	48 8d 05 00 00
	00 00		 lea	 rax, OFFSET FLAT:static_d_desc
  00031	48 89 81 68 0b
	00 00		 mov	 QWORD PTR [rcx+2920], rax

; 389  : 
; 390  :     s->bl_desc.dyn_tree = s->bl_tree;

  00038	48 8d 81 a4 0a
	00 00		 lea	 rax, QWORD PTR [rcx+2724]
  0003f	48 89 81 70 0b
	00 00		 mov	 QWORD PTR [rcx+2928], rax

; 391  :     s->bl_desc.stat_desc = &static_bl_desc;

  00046	48 8d 05 00 00
	00 00		 lea	 rax, OFFSET FLAT:static_bl_desc
  0004d	48 89 81 80 0b
	00 00		 mov	 QWORD PTR [rcx+2944], rax

; 392  : 
; 393  :     s->bi_buf = 0;

  00054	33 c0		 xor	 eax, eax
  00056	66 89 81 0c 17
	00 00		 mov	 WORD PTR [rcx+5900], ax

; 394  :     s->bi_valid = 0;

  0005d	89 81 10 17 00
	00		 mov	 DWORD PTR [rcx+5904], eax

; 395  : #ifdef ZLIB_DEBUG
; 396  :     s->compressed_len = 0L;
; 397  :     s->bits_sent = 0L;
; 398  : #endif
; 399  : 
; 400  :     /* Initialize the first block of the first file: */
; 401  :     init_block(s);

  00063	e9 00 00 00 00	 jmp	 init_block
_tr_init ENDP
_TEXT	ENDS
; Function compile flags: /Ogtpy
; File G:\1_Projects\BRDF\DisneyBRDF\zlib-1.2.12\trees.c
;	COMDAT _tr_align
_TEXT	SEGMENT
s$ = 8
_tr_align PROC						; COMDAT

; 899  : {

  00000	4c 8b c1	 mov	 r8, rcx

; 900  :     send_bits(s, STATIC_TREES<<1, 3);

  00003	41 b9 02 00 00
	00		 mov	 r9d, 2
  00009	8b 89 10 17 00
	00		 mov	 ecx, DWORD PTR [rcx+5904]
  0000f	41 8b d1	 mov	 edx, r9d
  00012	66 d3 e2	 shl	 dx, cl
  00015	41 0f b7 80 0c
	17 00 00	 movzx	 eax, WORD PTR [r8+5900]
  0001d	66 0b d0	 or	 dx, ax
  00020	83 f9 0d	 cmp	 ecx, 13
  00023	7e 55		 jle	 SHORT $LN2@tr_align
  00025	41 8b 48 28	 mov	 ecx, DWORD PTR [r8+40]
  00029	49 8b 40 10	 mov	 rax, QWORD PTR [r8+16]
  0002d	66 41 89 90 0c
	17 00 00	 mov	 WORD PTR [r8+5900], dx
  00035	88 14 01	 mov	 BYTE PTR [rcx+rax], dl
  00038	41 ff 40 28	 inc	 DWORD PTR [r8+40]
  0003c	41 8b 50 28	 mov	 edx, DWORD PTR [r8+40]
  00040	49 8b 48 10	 mov	 rcx, QWORD PTR [r8+16]
  00044	41 0f b6 80 0d
	17 00 00	 movzx	 eax, BYTE PTR [r8+5901]
  0004c	88 04 0a	 mov	 BYTE PTR [rdx+rcx], al
  0004f	b8 10 00 00 00	 mov	 eax, 16
  00054	41 0f b7 88 10
	17 00 00	 movzx	 ecx, WORD PTR [r8+5904]
  0005c	41 83 80 10 17
	00 00 f3	 add	 DWORD PTR [r8+5904], -13
  00064	2a c1		 sub	 al, cl
  00066	41 ff 40 28	 inc	 DWORD PTR [r8+40]
  0006a	0f b6 c8	 movzx	 ecx, al
  0006d	45 8b 90 10 17
	00 00		 mov	 r10d, DWORD PTR [r8+5904]
  00074	66 41 d3 e9	 shr	 r9w, cl
  00078	eb 0f		 jmp	 SHORT $LN3@tr_align
$LN2@tr_align:
  0007a	44 8d 51 03	 lea	 r10d, DWORD PTR [rcx+3]
  0007e	44 0f b7 ca	 movzx	 r9d, dx
  00082	45 89 90 10 17
	00 00		 mov	 DWORD PTR [r8+5904], r10d
$LN3@tr_align:

; 901  :     send_code(s, END_BLOCK, static_ltree);

  00089	41 83 fa 09	 cmp	 r10d, 9
  0008d	7e 3c		 jle	 SHORT $LN4@tr_align
  0008f	41 8b 48 28	 mov	 ecx, DWORD PTR [r8+40]
  00093	49 8b 40 10	 mov	 rax, QWORD PTR [r8+16]
  00097	66 45 89 88 0c
	17 00 00	 mov	 WORD PTR [r8+5900], r9w
  0009f	44 88 0c 01	 mov	 BYTE PTR [rcx+rax], r9b
  000a3	41 ff 40 28	 inc	 DWORD PTR [r8+40]
  000a7	41 8b 50 28	 mov	 edx, DWORD PTR [r8+40]
  000ab	49 8b 48 10	 mov	 rcx, QWORD PTR [r8+16]
  000af	41 0f b6 80 0d
	17 00 00	 movzx	 eax, BYTE PTR [r8+5901]
  000b7	88 04 0a	 mov	 BYTE PTR [rdx+rcx], al
  000ba	41 ff 40 28	 inc	 DWORD PTR [r8+40]
  000be	41 83 80 10 17
	00 00 f7	 add	 DWORD PTR [r8+5904], -9
  000c6	45 33 c9	 xor	 r9d, r9d
  000c9	eb 0b		 jmp	 SHORT $LN5@tr_align
$LN4@tr_align:
  000cb	41 8d 42 07	 lea	 eax, DWORD PTR [r10+7]
  000cf	41 89 80 10 17
	00 00		 mov	 DWORD PTR [r8+5904], eax
$LN5@tr_align:

; 902  : #ifdef ZLIB_DEBUG
; 903  :     s->compressed_len += 10L; /* 3 for block type, 7 for EOB */
; 904  : #endif
; 905  :     bi_flush(s);

  000d6	49 8b c8	 mov	 rcx, r8
  000d9	66 45 89 88 0c
	17 00 00	 mov	 WORD PTR [r8+5900], r9w
  000e1	e9 00 00 00 00	 jmp	 bi_flush
_tr_align ENDP
_TEXT	ENDS
; Function compile flags: /Ogtpy
; File G:\1_Projects\BRDF\DisneyBRDF\zlib-1.2.12\trees.c
;	COMDAT tr_static_init
_TEXT	SEGMENT
tr_static_init PROC					; COMDAT

; 234  : #if defined(GEN_TREES_H) || !defined(STDC)
; 235  :     static int static_init_done = 0;
; 236  :     int n;        /* iterates over tree elements */
; 237  :     int bits;     /* bit counter */
; 238  :     int length;   /* length value */
; 239  :     int code;     /* code value */
; 240  :     int dist;     /* distance index */
; 241  :     ush bl_count[MAX_BITS+1];
; 242  :     /* number of codes at each bit length for an optimal tree */
; 243  : 
; 244  :     if (static_init_done) return;
; 245  : 
; 246  :     /* For some embedded targets, global variables are not initialized: */
; 247  : #ifdef NO_INIT_GLOBAL_POINTERS
; 248  :     static_l_desc.static_tree = static_ltree;
; 249  :     static_l_desc.extra_bits = extra_lbits;
; 250  :     static_d_desc.static_tree = static_dtree;
; 251  :     static_d_desc.extra_bits = extra_dbits;
; 252  :     static_bl_desc.extra_bits = extra_blbits;
; 253  : #endif
; 254  : 
; 255  :     /* Initialize the mapping length (0..255) -> length code (0..28) */
; 256  :     length = 0;
; 257  :     for (code = 0; code < LENGTH_CODES-1; code++) {
; 258  :         base_length[code] = length;
; 259  :         for (n = 0; n < (1<<extra_lbits[code]); n++) {
; 260  :             _length_code[length++] = (uch)code;
; 261  :         }
; 262  :     }
; 263  :     Assert (length == 256, "tr_static_init: length != 256");
; 264  :     /* Note that the length 255 (match length 258) can be represented
; 265  :      * in two different ways: code 284 + 5 bits or code 285, so we
; 266  :      * overwrite length_code[255] to use the best encoding:
; 267  :      */
; 268  :     _length_code[length-1] = (uch)code;
; 269  : 
; 270  :     /* Initialize the mapping dist (0..32K) -> dist code (0..29) */
; 271  :     dist = 0;
; 272  :     for (code = 0 ; code < 16; code++) {
; 273  :         base_dist[code] = dist;
; 274  :         for (n = 0; n < (1<<extra_dbits[code]); n++) {
; 275  :             _dist_code[dist++] = (uch)code;
; 276  :         }
; 277  :     }
; 278  :     Assert (dist == 256, "tr_static_init: dist != 256");
; 279  :     dist >>= 7; /* from now on, all distances are divided by 128 */
; 280  :     for ( ; code < D_CODES; code++) {
; 281  :         base_dist[code] = dist << 7;
; 282  :         for (n = 0; n < (1<<(extra_dbits[code]-7)); n++) {
; 283  :             _dist_code[256 + dist++] = (uch)code;
; 284  :         }
; 285  :     }
; 286  :     Assert (dist == 256, "tr_static_init: 256+dist != 512");
; 287  : 
; 288  :     /* Construct the codes of the static literal tree */
; 289  :     for (bits = 0; bits <= MAX_BITS; bits++) bl_count[bits] = 0;
; 290  :     n = 0;
; 291  :     while (n <= 143) static_ltree[n++].Len = 8, bl_count[8]++;
; 292  :     while (n <= 255) static_ltree[n++].Len = 9, bl_count[9]++;
; 293  :     while (n <= 279) static_ltree[n++].Len = 7, bl_count[7]++;
; 294  :     while (n <= 287) static_ltree[n++].Len = 8, bl_count[8]++;
; 295  :     /* Codes 286 and 287 do not exist, but we must include them in the
; 296  :      * tree construction to get a canonical Huffman tree (longest code
; 297  :      * all ones)
; 298  :      */
; 299  :     gen_codes((ct_data *)static_ltree, L_CODES+1, bl_count);
; 300  : 
; 301  :     /* The static distance tree is trivial: */
; 302  :     for (n = 0; n < D_CODES; n++) {
; 303  :         static_dtree[n].Len = 5;
; 304  :         static_dtree[n].Code = bi_reverse((unsigned)n, 5);
; 305  :     }
; 306  :     static_init_done = 1;
; 307  : 
; 308  : #  ifdef GEN_TREES_H
; 309  :     gen_trees_header();
; 310  : #  endif
; 311  : #endif /* defined(GEN_TREES_H) || !defined(STDC) */
; 312  : }

  00000	c2 00 00	 ret	 0
tr_static_init ENDP
_TEXT	ENDS
; Function compile flags: /Ogtpy
; File G:\1_Projects\BRDF\DisneyBRDF\zlib-1.2.12\trees.c
;	COMDAT init_block
_TEXT	SEGMENT
s$ = 8
init_block PROC						; COMDAT

; 409  : {

  00000	48 8d 81 bc 00
	00 00		 lea	 rax, QWORD PTR [rcx+188]
  00007	ba 1e 01 00 00	 mov	 edx, 286		; 0000011eH
  0000c	45 33 c0	 xor	 r8d, r8d
  0000f	90		 npad	 1
$LL4@init_block:

; 410  :     int n; /* iterates over tree elements */
; 411  : 
; 412  :     /* Initialize the trees. */
; 413  :     for (n = 0; n < L_CODES;  n++) s->dyn_ltree[n].Freq = 0;

  00010	66 44 89 00	 mov	 WORD PTR [rax], r8w
  00014	48 8d 40 04	 lea	 rax, QWORD PTR [rax+4]
  00018	48 83 ea 01	 sub	 rdx, 1
  0001c	75 f2		 jne	 SHORT $LL4@init_block

; 414  :     for (n = 0; n < D_CODES;  n++) s->dyn_dtree[n].Freq = 0;

  0001e	66 44 89 81 b0
	09 00 00	 mov	 WORD PTR [rcx+2480], r8w

; 415  :     for (n = 0; n < BL_CODES; n++) s->bl_tree[n].Freq = 0;
; 416  : 
; 417  :     s->dyn_ltree[END_BLOCK].Freq = 1;

  00026	b8 01 00 00 00	 mov	 eax, 1
  0002b	66 44 89 81 b4
	09 00 00	 mov	 WORD PTR [rcx+2484], r8w
  00033	66 44 89 81 b8
	09 00 00	 mov	 WORD PTR [rcx+2488], r8w
  0003b	66 44 89 81 bc
	09 00 00	 mov	 WORD PTR [rcx+2492], r8w
  00043	66 44 89 81 c0
	09 00 00	 mov	 WORD PTR [rcx+2496], r8w
  0004b	66 44 89 81 c4
	09 00 00	 mov	 WORD PTR [rcx+2500], r8w
  00053	66 44 89 81 c8
	09 00 00	 mov	 WORD PTR [rcx+2504], r8w
  0005b	66 44 89 81 cc
	09 00 00	 mov	 WORD PTR [rcx+2508], r8w
  00063	66 44 89 81 d0
	09 00 00	 mov	 WORD PTR [rcx+2512], r8w
  0006b	66 44 89 81 d4
	09 00 00	 mov	 WORD PTR [rcx+2516], r8w
  00073	66 44 89 81 d8
	09 00 00	 mov	 WORD PTR [rcx+2520], r8w
  0007b	66 44 89 81 dc
	09 00 00	 mov	 WORD PTR [rcx+2524], r8w
  00083	66 44 89 81 e0
	09 00 00	 mov	 WORD PTR [rcx+2528], r8w
  0008b	66 44 89 81 e4
	09 00 00	 mov	 WORD PTR [rcx+2532], r8w
  00093	66 44 89 81 e8
	09 00 00	 mov	 WORD PTR [rcx+2536], r8w
  0009b	66 44 89 81 ec
	09 00 00	 mov	 WORD PTR [rcx+2540], r8w
  000a3	66 44 89 81 f0
	09 00 00	 mov	 WORD PTR [rcx+2544], r8w
  000ab	66 44 89 81 f4
	09 00 00	 mov	 WORD PTR [rcx+2548], r8w
  000b3	66 44 89 81 f8
	09 00 00	 mov	 WORD PTR [rcx+2552], r8w
  000bb	66 44 89 81 fc
	09 00 00	 mov	 WORD PTR [rcx+2556], r8w
  000c3	66 44 89 81 00
	0a 00 00	 mov	 WORD PTR [rcx+2560], r8w
  000cb	66 44 89 81 04
	0a 00 00	 mov	 WORD PTR [rcx+2564], r8w
  000d3	66 44 89 81 08
	0a 00 00	 mov	 WORD PTR [rcx+2568], r8w
  000db	66 44 89 81 0c
	0a 00 00	 mov	 WORD PTR [rcx+2572], r8w
  000e3	66 44 89 81 10
	0a 00 00	 mov	 WORD PTR [rcx+2576], r8w
  000eb	66 44 89 81 14
	0a 00 00	 mov	 WORD PTR [rcx+2580], r8w
  000f3	66 44 89 81 18
	0a 00 00	 mov	 WORD PTR [rcx+2584], r8w
  000fb	66 44 89 81 1c
	0a 00 00	 mov	 WORD PTR [rcx+2588], r8w
  00103	66 44 89 81 20
	0a 00 00	 mov	 WORD PTR [rcx+2592], r8w
  0010b	66 44 89 81 24
	0a 00 00	 mov	 WORD PTR [rcx+2596], r8w
  00113	66 44 89 81 a4
	0a 00 00	 mov	 WORD PTR [rcx+2724], r8w
  0011b	66 44 89 81 a8
	0a 00 00	 mov	 WORD PTR [rcx+2728], r8w
  00123	66 44 89 81 ac
	0a 00 00	 mov	 WORD PTR [rcx+2732], r8w
  0012b	66 44 89 81 b0
	0a 00 00	 mov	 WORD PTR [rcx+2736], r8w
  00133	66 44 89 81 b4
	0a 00 00	 mov	 WORD PTR [rcx+2740], r8w
  0013b	66 44 89 81 b8
	0a 00 00	 mov	 WORD PTR [rcx+2744], r8w
  00143	66 44 89 81 bc
	0a 00 00	 mov	 WORD PTR [rcx+2748], r8w
  0014b	66 44 89 81 c0
	0a 00 00	 mov	 WORD PTR [rcx+2752], r8w
  00153	66 44 89 81 c4
	0a 00 00	 mov	 WORD PTR [rcx+2756], r8w
  0015b	66 44 89 81 c8
	0a 00 00	 mov	 WORD PTR [rcx+2760], r8w
  00163	66 44 89 81 cc
	0a 00 00	 mov	 WORD PTR [rcx+2764], r8w
  0016b	66 44 89 81 d0
	0a 00 00	 mov	 WORD PTR [rcx+2768], r8w
  00173	66 44 89 81 d4
	0a 00 00	 mov	 WORD PTR [rcx+2772], r8w
  0017b	66 44 89 81 d8
	0a 00 00	 mov	 WORD PTR [rcx+2776], r8w
  00183	66 44 89 81 dc
	0a 00 00	 mov	 WORD PTR [rcx+2780], r8w
  0018b	66 44 89 81 e0
	0a 00 00	 mov	 WORD PTR [rcx+2784], r8w
  00193	66 44 89 81 e4
	0a 00 00	 mov	 WORD PTR [rcx+2788], r8w
  0019b	66 44 89 81 e8
	0a 00 00	 mov	 WORD PTR [rcx+2792], r8w
  001a3	66 44 89 81 ec
	0a 00 00	 mov	 WORD PTR [rcx+2796], r8w
  001ab	66 89 81 bc 04
	00 00		 mov	 WORD PTR [rcx+1212], ax

; 418  :     s->opt_len = s->static_len = 0L;

  001b2	4c 89 81 fc 16
	00 00		 mov	 QWORD PTR [rcx+5884], r8

; 419  :     s->sym_next = s->matches = 0;

  001b9	44 89 81 04 17
	00 00		 mov	 DWORD PTR [rcx+5892], r8d
  001c0	44 89 81 f4 16
	00 00		 mov	 DWORD PTR [rcx+5876], r8d

; 420  : }

  001c7	c3		 ret	 0
init_block ENDP
_TEXT	ENDS
; Function compile flags: /Ogtpy
; File G:\1_Projects\BRDF\DisneyBRDF\zlib-1.2.12\trees.c
;	COMDAT pqdownheap
_TEXT	SEGMENT
s$ = 16
tree$ = 24
k$ = 32
pqdownheap PROC						; COMDAT

; 455  : {

  00000	48 89 5c 24 10	 mov	 QWORD PTR [rsp+16], rbx
  00005	57		 push	 rdi

; 456  :     int v = s->heap[k];
; 457  :     int j = k << 1;  /* left son of k */
; 458  :     while (j <= s->heap_len) {

  00006	8b 81 9c 14 00
	00		 mov	 eax, DWORD PTR [rcx+5276]
  0000c	4d 63 d8	 movsxd	 r11, r8d
  0000f	4a 63 bc 99 a8
	0b 00 00	 movsxd	 rdi, DWORD PTR [rcx+r11*4+2984]
  00017	47 8d 0c 1b	 lea	 r9d, DWORD PTR [r11+r11]
  0001b	44 3b c8	 cmp	 r9d, eax
  0001e	0f 8f ae 00 00
	00		 jg	 $LN16@pqdownheap
  00024	48 89 74 24 10	 mov	 QWORD PTR [rsp+16], rsi
$LN19@pqdownheap:

; 459  :         /* Set j to the smallest of the two sons: */
; 460  :         if (j < s->heap_len &&

  00029	7d 37		 jge	 SHORT $LN4@pqdownheap
  0002b	49 63 c1	 movsxd	 rax, r9d
  0002e	4c 63 94 81 a8
	0b 00 00	 movsxd	 r10, DWORD PTR [rcx+rax*4+2984]
  00036	4c 63 84 81 ac
	0b 00 00	 movsxd	 r8, DWORD PTR [rcx+rax*4+2988]
  0003e	42 0f b7 04 82	 movzx	 eax, WORD PTR [rdx+r8*4]
  00043	66 42 3b 04 92	 cmp	 ax, WORD PTR [rdx+r10*4]
  00048	72 15		 jb	 SHORT $LN5@pqdownheap
  0004a	75 16		 jne	 SHORT $LN4@pqdownheap
  0004c	41 0f b6 84 0a
	a4 14 00 00	 movzx	 eax, BYTE PTR [r10+rcx+5284]
  00055	41 38 84 08 a4
	14 00 00	 cmp	 BYTE PTR [r8+rcx+5284], al
  0005d	77 03		 ja	 SHORT $LN4@pqdownheap
$LN5@pqdownheap:

; 461  :             smaller(tree, s->heap[j+1], s->heap[j], s->depth)) {
; 462  :             j++;

  0005f	41 ff c1	 inc	 r9d
$LN4@pqdownheap:

; 463  :         }
; 464  :         /* Exit if v is smaller than both sons */
; 465  :         if (smaller(tree, v, s->heap[j], s->depth)) break;

  00062	49 63 c1	 movsxd	 rax, r9d
  00065	4c 63 94 81 a8
	0b 00 00	 movsxd	 r10, DWORD PTR [rcx+rax*4+2984]
  0006d	0f b7 04 ba	 movzx	 eax, WORD PTR [rdx+rdi*4]
  00071	66 42 3b 04 92	 cmp	 ax, WORD PTR [rdx+r10*4]
  00076	72 44		 jb	 SHORT $LN14@pqdownheap
  00078	75 12		 jne	 SHORT $LN6@pqdownheap
  0007a	41 0f b6 84 0a
	a4 14 00 00	 movzx	 eax, BYTE PTR [r10+rcx+5284]
  00083	38 84 0f a4 14
	00 00		 cmp	 BYTE PTR [rdi+rcx+5284], al
  0008a	76 30		 jbe	 SHORT $LN14@pqdownheap
$LN6@pqdownheap:

; 466  : 
; 467  :         /* Exchange v with the smallest son */
; 468  :         s->heap[k] = s->heap[j];  k = j;

  0008c	49 63 c3	 movsxd	 rax, r11d
  0008f	4d 63 d9	 movsxd	 r11, r9d

; 469  : 
; 470  :         /* And continue down the tree, setting j to the left son of k */
; 471  :         j <<= 1;

  00092	45 03 c9	 add	 r9d, r9d
  00095	44 89 94 81 a8
	0b 00 00	 mov	 DWORD PTR [rcx+rax*4+2984], r10d
  0009d	8b 81 9c 14 00
	00		 mov	 eax, DWORD PTR [rcx+5276]
  000a3	44 3b c8	 cmp	 r9d, eax
  000a6	7e 81		 jle	 SHORT $LN19@pqdownheap

; 472  :     }
; 473  :     s->heap[k] = v;

  000a8	48 8b 74 24 10	 mov	 rsi, QWORD PTR [rsp+16]
  000ad	42 89 bc 99 a8
	0b 00 00	 mov	 DWORD PTR [rcx+r11*4+2984], edi

; 474  : }

  000b5	48 8b 5c 24 18	 mov	 rbx, QWORD PTR [rsp+24]
  000ba	5f		 pop	 rdi
  000bb	c3		 ret	 0
$LN14@pqdownheap:
  000bc	48 8b 74 24 10	 mov	 rsi, QWORD PTR [rsp+16]

; 472  :     }
; 473  :     s->heap[k] = v;

  000c1	49 63 c3	 movsxd	 rax, r11d
  000c4	89 bc 81 a8 0b
	00 00		 mov	 DWORD PTR [rcx+rax*4+2984], edi

; 474  : }

  000cb	48 8b 5c 24 18	 mov	 rbx, QWORD PTR [rsp+24]
  000d0	5f		 pop	 rdi
  000d1	c3		 ret	 0
$LN16@pqdownheap:
  000d2	48 8b 5c 24 18	 mov	 rbx, QWORD PTR [rsp+24]
  000d7	42 89 bc 99 a8
	0b 00 00	 mov	 DWORD PTR [rcx+r11*4+2984], edi
  000df	5f		 pop	 rdi
  000e0	c3		 ret	 0
pqdownheap ENDP
_TEXT	ENDS
; Function compile flags: /Ogtpy
; File G:\1_Projects\BRDF\DisneyBRDF\zlib-1.2.12\trees.c
;	COMDAT gen_bitlen
_TEXT	SEGMENT
h$1$ = 48
s$ = 48
desc$ = 56
gen_bitlen PROC						; COMDAT

; 489  : {

  00000	40 55		 push	 rbp
  00002	56		 push	 rsi
  00003	57		 push	 rdi
  00004	41 55		 push	 r13
  00006	41 57		 push	 r15

; 490  :     ct_data *tree        = desc->dyn_tree;
; 491  :     int max_code         = desc->max_code;
; 492  :     const ct_data *stree = desc->stat_desc->static_tree;

  00008	48 8b 42 10	 mov	 rax, QWORD PTR [rdx+16]

; 493  :     const intf *extra    = desc->stat_desc->extra_bits;
; 494  :     int base             = desc->stat_desc->extra_base;
; 495  :     int max_length       = desc->stat_desc->max_length;
; 496  :     int h;              /* heap index */
; 497  :     int n, m;           /* iterate over the tree elements */
; 498  :     int bits;           /* bit length */
; 499  :     int xbits;          /* extra bits */
; 500  :     ush f;              /* frequency */
; 501  :     int overflow = 0;   /* number of elements with bit length too large */

  0000c	45 33 c0	 xor	 r8d, r8d
  0000f	48 8b 32	 mov	 rsi, QWORD PTR [rdx]

; 509  : 
; 510  :     for (h = s->heap_max+1; h < HEAP_SIZE; h++) {

  00012	41 bb 3d 02 00
	00		 mov	 r11d, 573		; 0000023dH
  00018	8b 7a 08	 mov	 edi, DWORD PTR [rdx+8]
  0001b	45 8b c8	 mov	 r9d, r8d
  0001e	41 0f b7 d0	 movzx	 edx, r8w
  00022	48 8b 28	 mov	 rbp, QWORD PTR [rax]
  00025	4c 8b 68 08	 mov	 r13, QWORD PTR [rax+8]
  00029	44 8b 78 10	 mov	 r15d, DWORD PTR [rax+16]
  0002d	4c 63 50 18	 movsxd	 r10, DWORD PTR [rax+24]
  00031	8b c2		 mov	 eax, edx
  00033	c1 e2 10	 shl	 edx, 16
  00036	0b d0		 or	 edx, eax
  00038	66 0f 6e c2	 movd	 xmm0, edx
  0003c	66 0f 70 c0 00	 pshufd	 xmm0, xmm0, 0
  00041	0f 11 81 88 0b
	00 00		 movups	 XMMWORD PTR [rcx+2952], xmm0
  00048	0f 11 81 98 0b
	00 00		 movups	 XMMWORD PTR [rcx+2968], xmm0
  0004f	48 63 81 a0 14
	00 00		 movsxd	 rax, DWORD PTR [rcx+5280]
  00056	48 63 94 81 a8
	0b 00 00	 movsxd	 rdx, DWORD PTR [rcx+rax*4+2984]
  0005e	66 44 89 44 96
	02		 mov	 WORD PTR [rsi+rdx*4+2], r8w
  00064	8b 91 a0 14 00
	00		 mov	 edx, DWORD PTR [rcx+5280]
  0006a	ff c2		 inc	 edx
  0006c	48 63 c2	 movsxd	 rax, edx
  0006f	49 3b c3	 cmp	 rax, r11
  00072	0f 8d 8f 01 00
	00		 jge	 $LN14@gen_bitlen

; 502  : 
; 503  :     for (bits = 0; bits <= MAX_BITS; bits++) s->bl_count[bits] = 0;
; 504  : 
; 505  :     /* In a first pass, compute the optimal bit lengths (which may
; 506  :      * overflow in the case of the bit length tree).
; 507  :      */
; 508  :     tree[s->heap[s->heap_max]].Len = 0; /* root of the heap */

  00078	48 89 5c 24 38	 mov	 QWORD PTR [rsp+56], rbx
  0007d	4c 2b d8	 sub	 r11, rax
  00080	4c 89 64 24 40	 mov	 QWORD PTR [rsp+64], r12
  00085	41 03 d3	 add	 edx, r11d
  00088	4c 89 74 24 48	 mov	 QWORD PTR [rsp+72], r14
  0008d	4c 8d b1 a8 0b
	00 00		 lea	 r14, QWORD PTR [rcx+2984]
  00094	4d 8d 34 86	 lea	 r14, QWORD PTR [r14+rax*4]
  00098	89 54 24 30	 mov	 DWORD PTR h$1$[rsp], edx
  0009c	0f 1f 40 00	 npad	 4
$LL7@gen_bitlen:

; 511  :         n = s->heap[h];

  000a0	4d 63 06	 movsxd	 r8, DWORD PTR [r14]

; 512  :         bits = tree[tree[n].Dad].Len + 1;
; 513  :         if (bits > max_length) bits = max_length, overflow++;
; 514  :         tree[n].Len = (ush)bits;

  000a3	41 8b da	 mov	 ebx, r10d
  000a6	4e 8d 24 85 00
	00 00 00	 lea	 r12, QWORD PTR [r8*4]
  000ae	41 0f b7 44 34
	02		 movzx	 eax, WORD PTR [r12+rsi+2]
  000b4	0f b7 54 86 02	 movzx	 edx, WORD PTR [rsi+rax*4+2]
  000b9	41 8d 41 01	 lea	 eax, DWORD PTR [r9+1]
  000bd	ff c2		 inc	 edx
  000bf	41 3b d2	 cmp	 edx, r10d
  000c2	0f 4e da	 cmovle	 ebx, edx
  000c5	41 0f 4e c1	 cmovle	 eax, r9d
  000c9	66 41 89 5c 34
	02		 mov	 WORD PTR [r12+rsi+2], bx
  000cf	44 8b c8	 mov	 r9d, eax

; 515  :         /* We overwrite tree[n].Dad which is no longer needed */
; 516  : 
; 517  :         if (n > max_code) continue; /* not a leaf node */

  000d2	44 3b c7	 cmp	 r8d, edi
  000d5	7f 46		 jg	 SHORT $LN5@gen_bitlen

; 518  : 
; 519  :         s->bl_count[bits]++;

  000d7	48 63 c3	 movsxd	 rax, ebx

; 520  :         xbits = 0;

  000da	33 d2		 xor	 edx, edx
  000dc	66 ff 84 41 88
	0b 00 00	 inc	 WORD PTR [rcx+rax*2+2952]

; 521  :         if (n >= base) xbits = extra[n-base];

  000e4	45 3b c7	 cmp	 r8d, r15d
  000e7	7c 0b		 jl	 SHORT $LN20@gen_bitlen
  000e9	45 2b c7	 sub	 r8d, r15d
  000ec	49 63 c0	 movsxd	 rax, r8d
  000ef	41 8b 54 85 00	 mov	 edx, DWORD PTR [r13+rax*4]
$LN20@gen_bitlen:

; 522  :         f = tree[n].Freq;
; 523  :         s->opt_len += (ulg)f * (unsigned)(bits + xbits);

  000f4	45 0f b7 04 34	 movzx	 r8d, WORD PTR [r12+rsi]
  000f9	8d 04 13	 lea	 eax, DWORD PTR [rbx+rdx]
  000fc	41 0f af c0	 imul	 eax, r8d
  00100	01 81 fc 16 00
	00		 add	 DWORD PTR [rcx+5884], eax

; 524  :         if (stree) s->static_len += (ulg)f * (unsigned)(stree[n].Len + xbits);

  00106	48 85 ed	 test	 rbp, rbp
  00109	74 12		 je	 SHORT $LN5@gen_bitlen
  0010b	41 0f b7 44 2c
	02		 movzx	 eax, WORD PTR [r12+rbp+2]
  00111	03 c2		 add	 eax, edx
  00113	41 0f af c0	 imul	 eax, r8d
  00117	01 81 00 17 00
	00		 add	 DWORD PTR [rcx+5888], eax
$LN5@gen_bitlen:

; 509  : 
; 510  :     for (h = s->heap_max+1; h < HEAP_SIZE; h++) {

  0011d	49 83 c6 04	 add	 r14, 4
  00121	49 83 eb 01	 sub	 r11, 1
  00125	0f 85 75 ff ff
	ff		 jne	 $LL7@gen_bitlen

; 525  :     }
; 526  :     if (overflow == 0) return;

  0012b	4c 8b 74 24 48	 mov	 r14, QWORD PTR [rsp+72]
  00130	4c 8b 64 24 40	 mov	 r12, QWORD PTR [rsp+64]
  00135	45 85 c9	 test	 r9d, r9d
  00138	0f 84 c4 00 00
	00		 je	 $LN50@gen_bitlen
  0013e	45 8d 5a ff	 lea	 r11d, DWORD PTR [r10-1]
  00142	bb ff ff 00 00	 mov	 ebx, 65535		; 0000ffffH
  00147	4e 8d 04 51	 lea	 r8, QWORD PTR [rcx+r10*2]
  0014b	0f 1f 44 00 00	 npad	 5
$LL10@gen_bitlen:

; 527  : 
; 528  :     Tracev((stderr,"\nbit length overflow\n"));
; 529  :     /* This happens for example on obj2 and pic of the Calgary corpus */
; 530  : 
; 531  :     /* Find the first bit length which could increase: */
; 532  :     do {
; 533  :         bits = max_length-1;

  00150	49 63 d3	 movsxd	 rdx, r11d

; 534  :         while (s->bl_count[bits] == 0) bits--;

  00153	66 83 bc 51 88
	0b 00 00 00	 cmp	 WORD PTR [rcx+rdx*2+2952], 0
  0015c	75 12		 jne	 SHORT $LN12@gen_bitlen
  0015e	66 90		 npad	 2
$LL11@gen_bitlen:
  00160	ff ca		 dec	 edx
  00162	48 63 c2	 movsxd	 rax, edx
  00165	66 83 bc 41 88
	0b 00 00 00	 cmp	 WORD PTR [rcx+rax*2+2952], 0
  0016e	74 f0		 je	 SHORT $LL11@gen_bitlen
$LN12@gen_bitlen:

; 535  :         s->bl_count[bits]--;      /* move one leaf down the tree */

  00170	48 63 c2	 movsxd	 rax, edx

; 536  :         s->bl_count[bits+1] += 2; /* move one overflow item as its brother */
; 537  :         s->bl_count[max_length]--;
; 538  :         /* The brother of the overflow item also moves one step up,
; 539  :          * but this does not affect bl_count[max_length]
; 540  :          */
; 541  :         overflow -= 2;

  00173	41 83 e9 02	 sub	 r9d, 2
  00177	66 01 9c 41 88
	0b 00 00	 add	 WORD PTR [rcx+rax*2+2952], bx
  0017f	66 83 84 41 8a
	0b 00 00 02	 add	 WORD PTR [rcx+rax*2+2954], 2
  00188	66 41 01 98 88
	0b 00 00	 add	 WORD PTR [r8+2952], bx

; 542  :     } while (overflow > 0);

  00190	45 85 c9	 test	 r9d, r9d
  00193	7f bb		 jg	 SHORT $LL10@gen_bitlen

; 543  : 
; 544  :     /* Now recompute all bit lengths, scanning in increasing frequency.
; 545  :      * h is still equal to HEAP_SIZE. (It is simpler to reconstruct all
; 546  :      * lengths instead of fixing only the wrong ones. This idea is taken
; 547  :      * from 'ar' written by Haruhiko Okumura.)
; 548  :      */
; 549  :     for (bits = max_length; bits != 0; bits--) {

  00195	45 85 d2	 test	 r10d, r10d
  00198	74 68		 je	 SHORT $LN50@gen_bitlen
  0019a	48 63 5c 24 30	 movsxd	 rbx, DWORD PTR h$1$[rsp]
  0019f	90		 npad	 1
$LL15@gen_bitlen:

; 550  :         n = s->bl_count[bits];

  001a0	49 63 c2	 movsxd	 rax, r10d
  001a3	44 0f b7 84 41
	88 0b 00 00	 movzx	 r8d, WORD PTR [rcx+rax*2+2952]

; 551  :         while (n != 0) {

  001ac	45 85 c0	 test	 r8d, r8d
  001af	74 4b		 je	 SHORT $LN13@gen_bitlen

; 550  :         n = s->bl_count[bits];

  001b1	4c 8d 99 a8 0b
	00 00		 lea	 r11, QWORD PTR [rcx+2984]
  001b8	4d 8d 1c 9b	 lea	 r11, QWORD PTR [r11+rbx*4]
  001bc	0f 1f 40 00	 npad	 4
$LL16@gen_bitlen:

; 552  :             m = s->heap[--h];

  001c0	49 63 43 fc	 movsxd	 rax, DWORD PTR [r11-4]
  001c4	4d 8d 5b fc	 lea	 r11, QWORD PTR [r11-4]
  001c8	48 ff cb	 dec	 rbx

; 553  :             if (m > max_code) continue;

  001cb	3b c7		 cmp	 eax, edi
  001cd	7f 28		 jg	 SHORT $LN36@gen_bitlen

; 554  :             if ((unsigned) tree[m].Len != (unsigned) bits) {

  001cf	4c 8d 0c 86	 lea	 r9, QWORD PTR [rsi+rax*4]
  001d3	0f b7 44 86 02	 movzx	 eax, WORD PTR [rsi+rax*4+2]
  001d8	41 3b c2	 cmp	 eax, r10d
  001db	74 17		 je	 SHORT $LN24@gen_bitlen

; 555  :                 Tracev((stderr,"code %d bits %d->%d\n", m, tree[m].Len, bits));
; 556  :                 s->opt_len += ((ulg)bits - tree[m].Len) * tree[m].Freq;

  001dd	41 8b d2	 mov	 edx, r10d
  001e0	2b d0		 sub	 edx, eax
  001e2	41 0f b7 01	 movzx	 eax, WORD PTR [r9]
  001e6	0f af d0	 imul	 edx, eax
  001e9	01 91 fc 16 00
	00		 add	 DWORD PTR [rcx+5884], edx

; 557  :                 tree[m].Len = (ush)bits;

  001ef	66 45 89 51 02	 mov	 WORD PTR [r9+2], r10w
$LN24@gen_bitlen:

; 558  :             }
; 559  :             n--;

  001f4	41 ff c8	 dec	 r8d
$LN36@gen_bitlen:

; 551  :         while (n != 0) {

  001f7	45 85 c0	 test	 r8d, r8d
  001fa	75 c4		 jne	 SHORT $LL16@gen_bitlen
$LN13@gen_bitlen:

; 543  : 
; 544  :     /* Now recompute all bit lengths, scanning in increasing frequency.
; 545  :      * h is still equal to HEAP_SIZE. (It is simpler to reconstruct all
; 546  :      * lengths instead of fixing only the wrong ones. This idea is taken
; 547  :      * from 'ar' written by Haruhiko Okumura.)
; 548  :      */
; 549  :     for (bits = max_length; bits != 0; bits--) {

  001fc	41 83 ea 01	 sub	 r10d, 1
  00200	75 9e		 jne	 SHORT $LL15@gen_bitlen
$LN50@gen_bitlen:
  00202	48 8b 5c 24 38	 mov	 rbx, QWORD PTR [rsp+56]
$LN14@gen_bitlen:

; 560  :         }
; 561  :     }
; 562  : }

  00207	41 5f		 pop	 r15
  00209	41 5d		 pop	 r13
  0020b	5f		 pop	 rdi
  0020c	5e		 pop	 rsi
  0020d	5d		 pop	 rbp
  0020e	c3		 ret	 0
gen_bitlen ENDP
_TEXT	ENDS
; Function compile flags: /Ogtpy
; File G:\1_Projects\BRDF\DisneyBRDF\zlib-1.2.12\trees.c
;	COMDAT gen_codes
_TEXT	SEGMENT
next_code$ = 32
tree$ = 80
max_code$ = 88
bl_count$ = 96
gen_codes PROC						; COMDAT

; 576  : {

  00000	48 83 ec 48	 sub	 rsp, 72			; 00000048H

; 577  :     ush next_code[MAX_BITS+1]; /* next code value for each bit length */
; 578  :     unsigned code = 0;         /* running code value */
; 579  :     int bits;                  /* bit index */
; 580  :     int n;                     /* code index */
; 581  : 
; 582  :     /* The distribution counts are first used to generate the code values
; 583  :      * without bit reversal.
; 584  :      */
; 585  :     for (bits = 1; bits <= MAX_BITS; bits++) {
; 586  :         code = (code + bl_count[bits-1]) << 1;

  00004	41 0f b7 00	 movzx	 eax, WORD PTR [r8]
  00008	4c 8b d1	 mov	 r10, rcx
  0000b	45 0f b7 48 02	 movzx	 r9d, WORD PTR [r8+2]
  00010	03 c0		 add	 eax, eax
  00012	41 0f b7 48 06	 movzx	 ecx, WORD PTR [r8+6]
  00017	44 03 c8	 add	 r9d, eax

; 587  :         next_code[bits] = (ush)code;

  0001a	66 89 44 24 22	 mov	 WORD PTR next_code$[rsp+2], ax
  0001f	45 03 c9	 add	 r9d, r9d
  00022	41 0f b7 40 04	 movzx	 eax, WORD PTR [r8+4]
  00027	41 03 c1	 add	 eax, r9d
  0002a	66 44 89 4c 24
	24		 mov	 WORD PTR next_code$[rsp+4], r9w
  00030	03 c0		 add	 eax, eax

; 588  :     }
; 589  :     /* Check that the bit counts in bl_count are consistent. The last code
; 590  :      * must be all ones.
; 591  :      */
; 592  :     Assert (code + bl_count[MAX_BITS]-1 == (1<<MAX_BITS)-1,
; 593  :             "inconsistent bit counts");
; 594  :     Tracev((stderr,"\ngen_codes: max_code %d ", max_code));
; 595  : 
; 596  :     for (n = 0;  n <= max_code; n++) {

  00032	4c 63 da	 movsxd	 r11, edx
  00035	03 c8		 add	 ecx, eax
  00037	66 89 44 24 26	 mov	 WORD PTR next_code$[rsp+6], ax
  0003c	41 0f b7 40 08	 movzx	 eax, WORD PTR [r8+8]
  00041	03 c9		 add	 ecx, ecx
  00043	03 c1		 add	 eax, ecx
  00045	66 89 4c 24 28	 mov	 WORD PTR next_code$[rsp+8], cx
  0004a	41 0f b7 48 0a	 movzx	 ecx, WORD PTR [r8+10]
  0004f	03 c0		 add	 eax, eax
  00051	03 c8		 add	 ecx, eax
  00053	66 89 44 24 2a	 mov	 WORD PTR next_code$[rsp+10], ax
  00058	41 0f b7 40 0c	 movzx	 eax, WORD PTR [r8+12]
  0005d	03 c9		 add	 ecx, ecx
  0005f	03 c1		 add	 eax, ecx
  00061	66 89 4c 24 2c	 mov	 WORD PTR next_code$[rsp+12], cx
  00066	41 0f b7 48 0e	 movzx	 ecx, WORD PTR [r8+14]
  0006b	03 c0		 add	 eax, eax
  0006d	03 c8		 add	 ecx, eax
  0006f	66 89 44 24 2e	 mov	 WORD PTR next_code$[rsp+14], ax
  00074	41 0f b7 40 10	 movzx	 eax, WORD PTR [r8+16]
  00079	03 c9		 add	 ecx, ecx
  0007b	03 c1		 add	 eax, ecx
  0007d	66 89 4c 24 30	 mov	 WORD PTR next_code$[rsp+16], cx
  00082	41 0f b7 48 12	 movzx	 ecx, WORD PTR [r8+18]
  00087	03 c0		 add	 eax, eax
  00089	03 c8		 add	 ecx, eax
  0008b	66 89 44 24 32	 mov	 WORD PTR next_code$[rsp+18], ax
  00090	41 0f b7 40 14	 movzx	 eax, WORD PTR [r8+20]
  00095	03 c9		 add	 ecx, ecx
  00097	03 c1		 add	 eax, ecx
  00099	66 89 4c 24 34	 mov	 WORD PTR next_code$[rsp+20], cx
  0009e	41 0f b7 48 16	 movzx	 ecx, WORD PTR [r8+22]
  000a3	03 c0		 add	 eax, eax
  000a5	03 c8		 add	 ecx, eax
  000a7	66 89 44 24 36	 mov	 WORD PTR next_code$[rsp+22], ax
  000ac	41 0f b7 40 18	 movzx	 eax, WORD PTR [r8+24]
  000b1	03 c9		 add	 ecx, ecx
  000b3	03 c1		 add	 eax, ecx
  000b5	66 89 4c 24 38	 mov	 WORD PTR next_code$[rsp+24], cx
  000ba	41 0f b7 48 1a	 movzx	 ecx, WORD PTR [r8+26]
  000bf	03 c0		 add	 eax, eax
  000c1	03 c8		 add	 ecx, eax
  000c3	66 89 44 24 3a	 mov	 WORD PTR next_code$[rsp+26], ax
  000c8	41 0f b7 40 1c	 movzx	 eax, WORD PTR [r8+28]
  000cd	03 c9		 add	 ecx, ecx
  000cf	03 c1		 add	 eax, ecx
  000d1	66 89 4c 24 3c	 mov	 WORD PTR next_code$[rsp+28], cx
  000d6	03 c0		 add	 eax, eax
  000d8	66 89 44 24 3e	 mov	 WORD PTR next_code$[rsp+30], ax
  000dd	85 d2		 test	 edx, edx
  000df	78 37		 js	 SHORT $LN6@gen_codes
  000e1	45 33 c9	 xor	 r9d, r9d
$LL7@gen_codes:

; 597  :         int len = tree[n].Len;

  000e4	43 0f b7 54 8a
	02		 movzx	 edx, WORD PTR [r10+r9*4+2]

; 598  :         if (len == 0) continue;

  000ea	85 d2		 test	 edx, edx
  000ec	74 22		 je	 SHORT $LN5@gen_codes

; 599  :         /* Now reverse the bits */
; 600  :         tree[n].Code = (ush)bi_reverse(next_code[len]++, len);

  000ee	48 8d 4c 24 20	 lea	 rcx, QWORD PTR next_code$[rsp]
  000f3	44 0f b7 04 51	 movzx	 r8d, WORD PTR [rcx+rdx*2]
  000f8	48 8d 0c 51	 lea	 rcx, QWORD PTR [rcx+rdx*2]
  000fc	41 8d 40 01	 lea	 eax, DWORD PTR [r8+1]
  00100	66 89 01	 mov	 WORD PTR [rcx], ax
  00103	41 8b c8	 mov	 ecx, r8d
  00106	e8 00 00 00 00	 call	 bi_reverse
  0010b	66 43 89 04 8a	 mov	 WORD PTR [r10+r9*4], ax
$LN5@gen_codes:

; 588  :     }
; 589  :     /* Check that the bit counts in bl_count are consistent. The last code
; 590  :      * must be all ones.
; 591  :      */
; 592  :     Assert (code + bl_count[MAX_BITS]-1 == (1<<MAX_BITS)-1,
; 593  :             "inconsistent bit counts");
; 594  :     Tracev((stderr,"\ngen_codes: max_code %d ", max_code));
; 595  : 
; 596  :     for (n = 0;  n <= max_code; n++) {

  00110	49 ff c1	 inc	 r9
  00113	4d 3b cb	 cmp	 r9, r11
  00116	7e cc		 jle	 SHORT $LL7@gen_codes
$LN6@gen_codes:

; 601  : 
; 602  :         Tracecv(tree != static_ltree, (stderr,"\nn %3d %c l %2d c %4x (%x) ",
; 603  :              n, (isgraph(n) ? n : ' '), len, tree[n].Code, next_code[len]-1));
; 604  :     }
; 605  : }

  00118	48 83 c4 48	 add	 rsp, 72			; 00000048H
  0011c	c3		 ret	 0
gen_codes ENDP
_TEXT	ENDS
; Function compile flags: /Ogtpy
; File G:\1_Projects\BRDF\DisneyBRDF\zlib-1.2.12\trees.c
;	COMDAT build_tree
_TEXT	SEGMENT
s$ = 64
desc$ = 72
build_tree PROC						; COMDAT

; 618  : {

  00000	48 89 5c 24 08	 mov	 QWORD PTR [rsp+8], rbx
  00005	48 89 6c 24 10	 mov	 QWORD PTR [rsp+16], rbp
  0000a	48 89 74 24 18	 mov	 QWORD PTR [rsp+24], rsi
  0000f	57		 push	 rdi
  00010	41 56		 push	 r14
  00012	41 57		 push	 r15
  00014	48 83 ec 20	 sub	 rsp, 32			; 00000020H

; 619  :     ct_data *tree         = desc->dyn_tree;
; 620  :     const ct_data *stree  = desc->stat_desc->static_tree;

  00018	48 8b 42 10	 mov	 rax, QWORD PTR [rdx+16]

; 621  :     int elems             = desc->stat_desc->elems;
; 622  :     int n, m;          /* iterate over heap elements */
; 623  :     int max_code = -1; /* largest code with non zero frequency */
; 624  :     int node;          /* new node being created */
; 625  : 
; 626  :     /* Construct the initial heap, with least frequent element in
; 627  :      * heap[SMALLEST]. The sons of heap[n] are heap[2*n] and heap[2*n+1].
; 628  :      * heap[0] is not used.
; 629  :      */
; 630  :     s->heap_len = 0, s->heap_max = HEAP_SIZE;

  0001c	33 db		 xor	 ebx, ebx
  0001e	48 8b 32	 mov	 rsi, QWORD PTR [rdx]
  00021	4c 8b f2	 mov	 r14, rdx
  00024	bf ff ff ff ff	 mov	 edi, -1
  00029	44 8b cb	 mov	 r9d, ebx
  0002c	48 63 68 14	 movsxd	 rbp, DWORD PTR [rax+20]
  00030	4c 8b 10	 mov	 r10, QWORD PTR [rax]
  00033	89 99 9c 14 00
	00		 mov	 DWORD PTR [rcx+5276], ebx
  00039	c7 81 a0 14 00
	00 3d 02 00 00	 mov	 DWORD PTR [rcx+5280], 573 ; 0000023dH

; 631  : 
; 632  :     for (n = 0; n < elems; n++) {

  00043	85 ed		 test	 ebp, ebp
  00045	7e 46		 jle	 SHORT $LN22@build_tree
  00047	44 8b c3	 mov	 r8d, ebx
  0004a	66 0f 1f 44 00
	00		 npad	 6
$LL4@build_tree:

; 633  :         if (tree[n].Freq != 0) {

  00050	66 42 39 1c 86	 cmp	 WORD PTR [rsi+r8*4], bx
  00055	74 25		 je	 SHORT $LN13@build_tree

; 634  :             s->heap[++(s->heap_len)] = max_code = n;

  00057	48 63 91 9c 14
	00 00		 movsxd	 rdx, DWORD PTR [rcx+5276]
  0005e	41 8b f9	 mov	 edi, r9d
  00061	8d 42 01	 lea	 eax, DWORD PTR [rdx+1]
  00064	89 81 9c 14 00
	00		 mov	 DWORD PTR [rcx+5276], eax
  0006a	44 89 8c 91 ac
	0b 00 00	 mov	 DWORD PTR [rcx+rdx*4+2988], r9d

; 635  :             s->depth[n] = 0;

  00072	41 88 9c 08 a4
	14 00 00	 mov	 BYTE PTR [r8+rcx+5284], bl

; 636  :         } else {

  0007a	eb 06		 jmp	 SHORT $LN2@build_tree
$LN13@build_tree:

; 637  :             tree[n].Len = 0;

  0007c	66 42 89 5c 86
	02		 mov	 WORD PTR [rsi+r8*4+2], bx
$LN2@build_tree:

; 631  : 
; 632  :     for (n = 0; n < elems; n++) {

  00082	41 ff c1	 inc	 r9d
  00085	49 ff c0	 inc	 r8
  00088	4c 3b c5	 cmp	 r8, rbp
  0008b	7c c3		 jl	 SHORT $LL4@build_tree
$LN22@build_tree:

; 638  :         }
; 639  :     }
; 640  : 
; 641  :     /* The pkzip format requires that at least one distance code exists,
; 642  :      * and that at least one bit should be sent even if there is only one
; 643  :      * possible code. So to avoid special checks later on we force at least
; 644  :      * two codes of non zero frequency.
; 645  :      */
; 646  :     while (s->heap_len < 2) {

  0008d	44 8b 81 9c 14
	00 00		 mov	 r8d, DWORD PTR [rcx+5276]
  00094	41 bf 01 00 00
	00		 mov	 r15d, 1
  0009a	41 83 f8 02	 cmp	 r8d, 2
  0009e	7d 5a		 jge	 SHORT $LN6@build_tree
$LL5@build_tree:

; 647  :         node = s->heap[++(s->heap_len)] = (max_code < 2 ? ++max_code : 0);

  000a0	83 ff 02	 cmp	 edi, 2
  000a3	41 8d 40 01	 lea	 eax, DWORD PTR [r8+1]
  000a7	89 81 9c 14 00
	00		 mov	 DWORD PTR [rcx+5276], eax
  000ad	8d 57 01	 lea	 edx, DWORD PTR [rdi+1]
  000b0	49 63 c0	 movsxd	 rax, r8d
  000b3	44 8b ca	 mov	 r9d, edx
  000b6	0f 4d d3	 cmovge	 edx, ebx
  000b9	44 0f 4d cf	 cmovge	 r9d, edi
  000bd	89 94 81 ac 0b
	00 00		 mov	 DWORD PTR [rcx+rax*4+2988], edx

; 648  :         tree[node].Freq = 1;

  000c4	48 63 c2	 movsxd	 rax, edx
  000c7	66 44 89 3c 86	 mov	 WORD PTR [rsi+rax*4], r15w

; 649  :         s->depth[node] = 0;

  000cc	88 9c 08 a4 14
	00 00		 mov	 BYTE PTR [rax+rcx+5284], bl

; 650  :         s->opt_len--; if (stree) s->static_len -= stree[node].Len;

  000d3	ff 89 fc 16 00
	00		 dec	 DWORD PTR [rcx+5884]
  000d9	4d 85 d2	 test	 r10, r10
  000dc	74 0c		 je	 SHORT $LN15@build_tree
  000de	41 0f b7 44 82
	02		 movzx	 eax, WORD PTR [r10+rax*4+2]
  000e4	29 81 00 17 00
	00		 sub	 DWORD PTR [rcx+5888], eax
$LN15@build_tree:

; 638  :         }
; 639  :     }
; 640  : 
; 641  :     /* The pkzip format requires that at least one distance code exists,
; 642  :      * and that at least one bit should be sent even if there is only one
; 643  :      * possible code. So to avoid special checks later on we force at least
; 644  :      * two codes of non zero frequency.
; 645  :      */
; 646  :     while (s->heap_len < 2) {

  000ea	44 8b 81 9c 14
	00 00		 mov	 r8d, DWORD PTR [rcx+5276]
  000f1	41 8b f9	 mov	 edi, r9d
  000f4	41 83 f8 02	 cmp	 r8d, 2
  000f8	7c a6		 jl	 SHORT $LL5@build_tree
$LN6@build_tree:

; 651  :         /* node is 0 or 1 so it does not have extra bits */
; 652  :     }
; 653  :     desc->max_code = max_code;

  000fa	41 89 7e 08	 mov	 DWORD PTR [r14+8], edi

; 654  : 
; 655  :     /* The elements heap[heap_len/2+1 .. heap_len] are leaves of the tree,
; 656  :      * establish sub-heaps of increasing lengths:
; 657  :      */
; 658  :     for (n = s->heap_len/2; n >= 1; n--) pqdownheap(s, tree, n);

  000fe	8b 81 9c 14 00
	00		 mov	 eax, DWORD PTR [rcx+5276]
  00104	99		 cdq
  00105	2b c2		 sub	 eax, edx
  00107	d1 f8		 sar	 eax, 1
  00109	8b d8		 mov	 ebx, eax
  0010b	41 3b c7	 cmp	 eax, r15d
  0010e	7c 12		 jl	 SHORT $LL12@build_tree
$LL9@build_tree:
  00110	44 8b c3	 mov	 r8d, ebx
  00113	48 8b d6	 mov	 rdx, rsi
  00116	e8 00 00 00 00	 call	 pqdownheap
  0011b	ff cb		 dec	 ebx
  0011d	41 3b df	 cmp	 ebx, r15d
  00120	7d ee		 jge	 SHORT $LL9@build_tree
$LL12@build_tree:

; 659  : 
; 660  :     /* Construct the Huffman tree by repeatedly combining the least two
; 661  :      * frequent nodes.
; 662  :      */
; 663  :     node = elems;              /* next internal node of the tree */
; 664  :     do {
; 665  :         pqremove(s, tree, n);  /* n = node of least frequency */

  00122	4c 63 81 9c 14
	00 00		 movsxd	 r8, DWORD PTR [rcx+5276]
  00129	48 63 99 ac 0b
	00 00		 movsxd	 rbx, DWORD PTR [rcx+2988]
  00130	42 8b 94 81 a8
	0b 00 00	 mov	 edx, DWORD PTR [rcx+r8*4+2984]
  00138	41 8d 40 ff	 lea	 eax, DWORD PTR [r8-1]
  0013c	89 91 ac 0b 00
	00		 mov	 DWORD PTR [rcx+2988], edx
  00142	45 8b c7	 mov	 r8d, r15d
  00145	48 8b d6	 mov	 rdx, rsi
  00148	89 81 9c 14 00
	00		 mov	 DWORD PTR [rcx+5276], eax
  0014e	e8 00 00 00 00	 call	 pqdownheap

; 666  :         m = s->heap[SMALLEST]; /* m = node of next least frequency */
; 667  : 
; 668  :         s->heap[--(s->heap_max)] = n; /* keep the nodes sorted by frequency */

  00153	48 63 91 a0 14
	00 00		 movsxd	 rdx, DWORD PTR [rcx+5280]
  0015a	4c 63 81 ac 0b
	00 00		 movsxd	 r8, DWORD PTR [rcx+2988]

; 669  :         s->heap[--(s->heap_max)] = m;
; 670  : 
; 671  :         /* Create a new node father of n and m */
; 672  :         tree[node].Freq = tree[n].Freq + tree[m].Freq;

  00161	4d 8b c8	 mov	 r9, r8
  00164	4c 63 d5	 movsxd	 r10, ebp
  00167	8d 42 ff	 lea	 eax, DWORD PTR [rdx-1]
  0016a	89 81 a0 14 00
	00		 mov	 DWORD PTR [rcx+5280], eax
  00170	89 9c 91 a4 0b
	00 00		 mov	 DWORD PTR [rcx+rdx*4+2980], ebx
  00177	48 63 91 a0 14
	00 00		 movsxd	 rdx, DWORD PTR [rcx+5280]
  0017e	8d 42 ff	 lea	 eax, DWORD PTR [rdx-1]
  00181	89 81 a0 14 00
	00		 mov	 DWORD PTR [rcx+5280], eax
  00187	44 89 84 91 a4
	0b 00 00	 mov	 DWORD PTR [rcx+rdx*4+2980], r8d

; 673  :         s->depth[node] = (uch)((s->depth[n] >= s->depth[m] ?
; 674  :                                 s->depth[n] : s->depth[m]) + 1);
; 675  :         tree[n].Dad = tree[m].Dad = (ush)node;
; 676  : #ifdef DUMP_BL_TREE
; 677  :         if (tree == s->bl_tree) {
; 678  :             fprintf(stderr,"\nnode %d(%d), sons %d(%d) %d(%d)",
; 679  :                     node, tree[node].Freq, n, tree[n].Freq, m, tree[m].Freq);
; 680  :         }
; 681  : #endif
; 682  :         /* and insert the new node in the heap */
; 683  :         s->heap[SMALLEST] = node++;
; 684  :         pqdownheap(s, tree, SMALLEST);

  0018f	48 8b d6	 mov	 rdx, rsi
  00192	0f b7 04 9e	 movzx	 eax, WORD PTR [rsi+rbx*4]
  00196	66 42 03 04 86	 add	 ax, WORD PTR [rsi+r8*4]
  0019b	66 42 89 04 96	 mov	 WORD PTR [rsi+r10*4], ax
  001a0	44 0f b6 84 0b
	a4 14 00 00	 movzx	 r8d, BYTE PTR [rbx+rcx+5284]
  001a9	41 0f b6 84 09
	a4 14 00 00	 movzx	 eax, BYTE PTR [r9+rcx+5284]
  001b2	44 3a c0	 cmp	 r8b, al
  001b5	44 0f 42 c0	 cmovb	 r8d, eax
  001b9	41 fe c0	 inc	 r8b
  001bc	45 88 84 0a a4
	14 00 00	 mov	 BYTE PTR [r10+rcx+5284], r8b
  001c4	45 8b c7	 mov	 r8d, r15d
  001c7	66 42 89 6c 8e
	02		 mov	 WORD PTR [rsi+r9*4+2], bp
  001cd	66 89 6c 9e 02	 mov	 WORD PTR [rsi+rbx*4+2], bp
  001d2	89 a9 ac 0b 00
	00		 mov	 DWORD PTR [rcx+2988], ebp
  001d8	ff c5		 inc	 ebp
  001da	e8 00 00 00 00	 call	 pqdownheap

; 685  : 
; 686  :     } while (s->heap_len >= 2);

  001df	83 b9 9c 14 00
	00 02		 cmp	 DWORD PTR [rcx+5276], 2
  001e6	0f 8d 36 ff ff
	ff		 jge	 $LL12@build_tree

; 687  : 
; 688  :     s->heap[--(s->heap_max)] = s->heap[SMALLEST];

  001ec	4c 63 81 a0 14
	00 00		 movsxd	 r8, DWORD PTR [rcx+5280]

; 689  : 
; 690  :     /* At this point, the fields freq and dad are set. We can now
; 691  :      * generate the bit lengths.
; 692  :      */
; 693  :     gen_bitlen(s, (tree_desc *)desc);

  001f3	49 8b d6	 mov	 rdx, r14
  001f6	41 8d 40 ff	 lea	 eax, DWORD PTR [r8-1]
  001fa	89 81 a0 14 00
	00		 mov	 DWORD PTR [rcx+5280], eax
  00200	8b 81 ac 0b 00
	00		 mov	 eax, DWORD PTR [rcx+2988]
  00206	42 89 84 81 a4
	0b 00 00	 mov	 DWORD PTR [rcx+r8*4+2980], eax
  0020e	e8 00 00 00 00	 call	 gen_bitlen

; 694  : 
; 695  :     /* The field len is now set, we can generate the bit codes */
; 696  :     gen_codes ((ct_data *)tree, max_code, s->bl_count);

  00213	4c 8d 81 88 0b
	00 00		 lea	 r8, QWORD PTR [rcx+2952]
  0021a	8b d7		 mov	 edx, edi
  0021c	48 8b ce	 mov	 rcx, rsi

; 697  : }

  0021f	48 8b 5c 24 40	 mov	 rbx, QWORD PTR [rsp+64]
  00224	48 8b 6c 24 48	 mov	 rbp, QWORD PTR [rsp+72]
  00229	48 8b 74 24 50	 mov	 rsi, QWORD PTR [rsp+80]
  0022e	48 83 c4 20	 add	 rsp, 32			; 00000020H
  00232	41 5f		 pop	 r15
  00234	41 5e		 pop	 r14
  00236	5f		 pop	 rdi

; 694  : 
; 695  :     /* The field len is now set, we can generate the bit codes */
; 696  :     gen_codes ((ct_data *)tree, max_code, s->bl_count);

  00237	e9 00 00 00 00	 jmp	 gen_codes
build_tree ENDP
_TEXT	ENDS
; Function compile flags: /Ogtpy
; File G:\1_Projects\BRDF\DisneyBRDF\zlib-1.2.12\trees.c
;	COMDAT scan_tree
_TEXT	SEGMENT
s$ = 16
tree$ = 24
max_code$ = 32
scan_tree PROC						; COMDAT

; 707  : {

  00000	40 53		 push	 rbx

; 708  :     int n;                     /* iterates over all tree elements */
; 709  :     int prevlen = -1;          /* last emitted length */
; 710  :     int curlen;                /* length of current code */
; 711  :     int nextlen = tree[0].Len; /* length of next code */

  00002	44 0f b7 52 02	 movzx	 r10d, WORD PTR [rdx+2]

; 712  :     int count = 0;             /* repeat count of the current code */

  00007	45 33 c9	 xor	 r9d, r9d

; 713  :     int max_count = 7;         /* max repeat count */
; 714  :     int min_count = 4;         /* min repeat count */
; 715  : 
; 716  :     if (nextlen == 0) max_count = 138, min_count = 3;
; 717  :     tree[max_code+1].Len = (ush)0xffff; /* guard */

  0000a	4d 63 d8	 movsxd	 r11, r8d
  0000d	b8 ff ff 00 00	 mov	 eax, 65535		; 0000ffffH
  00012	bb ff ff ff ff	 mov	 ebx, -1
  00017	66 42 89 44 9a
	06		 mov	 WORD PTR [rdx+r11*4+6], ax

; 718  : 
; 719  :     for (n = 0; n <= max_code; n++) {

  0001d	45 85 c0	 test	 r8d, r8d
  00020	0f 88 dd 00 00
	00		 js	 $LN3@scan_tree

; 713  :     int max_count = 7;         /* max repeat count */
; 714  :     int min_count = 4;         /* min repeat count */
; 715  : 
; 716  :     if (nextlen == 0) max_count = 138, min_count = 3;
; 717  :     tree[max_code+1].Len = (ush)0xffff; /* guard */

  00026	48 89 6c 24 10	 mov	 QWORD PTR [rsp+16], rbp
  0002b	66 45 85 d2	 test	 r10w, r10w
  0002f	48 89 74 24 18	 mov	 QWORD PTR [rsp+24], rsi
  00034	bd 07 00 00 00	 mov	 ebp, 7
  00039	41 b8 8a 00 00
	00		 mov	 r8d, 138		; 0000008aH
  0003f	48 89 7c 24 20	 mov	 QWORD PTR [rsp+32], rdi
  00044	44 0f 45 c5	 cmovne	 r8d, ebp
  00048	48 8d 7a 06	 lea	 rdi, QWORD PTR [rdx+6]
  0004c	33 c0		 xor	 eax, eax
  0004e	49 8d 73 01	 lea	 rsi, QWORD PTR [r11+1]
  00052	66 45 85 d2	 test	 r10w, r10w
  00056	0f 95 c0	 setne	 al
  00059	83 c0 03	 add	 eax, 3
  0005c	0f 1f 40 00	 npad	 4
$LL4@scan_tree:

; 720  :         curlen = nextlen; nextlen = tree[n+1].Len;
; 721  :         if (++count < max_count && curlen == nextlen) {

  00060	41 ff c1	 inc	 r9d
  00063	41 8b d2	 mov	 edx, r10d
  00066	45 8b da	 mov	 r11d, r10d
  00069	44 0f b7 17	 movzx	 r10d, WORD PTR [rdi]
  0006d	45 3b c8	 cmp	 r9d, r8d
  00070	7d 05		 jge	 SHORT $LN6@scan_tree
  00072	41 3b d2	 cmp	 edx, r10d
  00075	74 6f		 je	 SHORT $LN2@scan_tree
$LN6@scan_tree:

; 722  :             continue;
; 723  :         } else if (count < min_count) {

  00077	44 3b c8	 cmp	 r9d, eax
  0007a	7d 0b		 jge	 SHORT $LN8@scan_tree

; 724  :             s->bl_tree[curlen].Freq += count;

  0007c	66 44 01 8c 91
	a4 0a 00 00	 add	 WORD PTR [rcx+rdx*4+2724], r9w
  00085	eb 30		 jmp	 SHORT $LN14@scan_tree
$LN8@scan_tree:

; 725  :         } else if (curlen != 0) {

  00087	85 d2		 test	 edx, edx
  00089	74 16		 je	 SHORT $LN10@scan_tree

; 726  :             if (curlen != prevlen) s->bl_tree[curlen].Freq++;

  0008b	44 3b db	 cmp	 r11d, ebx
  0008e	74 08		 je	 SHORT $LN24@scan_tree
  00090	66 ff 84 91 a4
	0a 00 00	 inc	 WORD PTR [rcx+rdx*4+2724]
$LN24@scan_tree:

; 727  :             s->bl_tree[REP_3_6].Freq++;

  00098	66 ff 81 e4 0a
	00 00		 inc	 WORD PTR [rcx+2788]
  0009f	eb 16		 jmp	 SHORT $LN14@scan_tree
$LN10@scan_tree:

; 728  :         } else if (count <= 10) {

  000a1	41 83 f9 0a	 cmp	 r9d, 10
  000a5	7f 09		 jg	 SHORT $LN13@scan_tree

; 729  :             s->bl_tree[REPZ_3_10].Freq++;

  000a7	66 ff 81 e8 0a
	00 00		 inc	 WORD PTR [rcx+2792]

; 730  :         } else {

  000ae	eb 07		 jmp	 SHORT $LN14@scan_tree
$LN13@scan_tree:

; 731  :             s->bl_tree[REPZ_11_138].Freq++;

  000b0	66 ff 81 ec 0a
	00 00		 inc	 WORD PTR [rcx+2796]
$LN14@scan_tree:

; 732  :         }
; 733  :         count = 0; prevlen = curlen;

  000b7	45 33 c9	 xor	 r9d, r9d
  000ba	41 8b db	 mov	 ebx, r11d

; 734  :         if (nextlen == 0) {

  000bd	45 85 d2	 test	 r10d, r10d
  000c0	75 0c		 jne	 SHORT $LN15@scan_tree

; 735  :             max_count = 138, min_count = 3;

  000c2	41 8d 41 03	 lea	 eax, QWORD PTR [r9+3]
  000c6	41 b8 8a 00 00
	00		 mov	 r8d, 138		; 0000008aH
  000cc	eb 18		 jmp	 SHORT $LN2@scan_tree
$LN15@scan_tree:

; 736  :         } else if (curlen == nextlen) {

  000ce	41 3b d2	 cmp	 edx, r10d
  000d1	75 0b		 jne	 SHORT $LN17@scan_tree

; 737  :             max_count = 6, min_count = 3;

  000d3	b8 03 00 00 00	 mov	 eax, 3
  000d8	44 8d 40 03	 lea	 r8d, QWORD PTR [rax+3]

; 738  :         } else {

  000dc	eb 08		 jmp	 SHORT $LN2@scan_tree
$LN17@scan_tree:

; 739  :             max_count = 7, min_count = 4;

  000de	44 8b c5	 mov	 r8d, ebp
  000e1	b8 04 00 00 00	 mov	 eax, 4
$LN2@scan_tree:

; 718  : 
; 719  :     for (n = 0; n <= max_code; n++) {

  000e6	48 83 c7 04	 add	 rdi, 4
  000ea	48 83 ee 01	 sub	 rsi, 1
  000ee	0f 85 6c ff ff
	ff		 jne	 $LL4@scan_tree
  000f4	48 8b 7c 24 20	 mov	 rdi, QWORD PTR [rsp+32]
  000f9	48 8b 74 24 18	 mov	 rsi, QWORD PTR [rsp+24]
  000fe	48 8b 6c 24 10	 mov	 rbp, QWORD PTR [rsp+16]
$LN3@scan_tree:

; 740  :         }
; 741  :     }
; 742  : }

  00103	5b		 pop	 rbx
  00104	c3		 ret	 0
scan_tree ENDP
_TEXT	ENDS
; Function compile flags: /Ogtpy
; File G:\1_Projects\BRDF\DisneyBRDF\zlib-1.2.12\trees.c
;	COMDAT send_tree
_TEXT	SEGMENT
s$ = 48
tree$ = 56
max_code$ = 64
send_tree PROC						; COMDAT

; 758  :     int max_count = 7;         /* max repeat count */
; 759  :     int min_count = 4;         /* min repeat count */
; 760  : 
; 761  :     /* tree[max_code+1].Len = -1; */  /* guard already set */
; 762  :     if (nextlen == 0) max_count = 138, min_count = 3;
; 763  : 
; 764  :     for (n = 0; n <= max_code; n++) {

  00000	45 85 c0	 test	 r8d, r8d
  00003	0f 88 65 05 00
	00		 js	 $LN48@send_tree
  00009	55		 push	 rbp
  0000a	48 83 ec 20	 sub	 rsp, 32			; 00000020H

; 753  :     int n;                     /* iterates over all tree elements */
; 754  :     int prevlen = -1;          /* last emitted length */
; 755  :     int curlen;                /* length of current code */
; 756  :     int nextlen = tree[0].Len; /* length of next code */

  0000e	0f b7 6a 02	 movzx	 ebp, WORD PTR [rdx+2]

; 757  :     int count = 0;             /* repeat count of the current code */

  00012	45 33 c9	 xor	 r9d, r9d

; 758  :     int max_count = 7;         /* max repeat count */
; 759  :     int min_count = 4;         /* min repeat count */
; 760  : 
; 761  :     /* tree[max_code+1].Len = -1; */  /* guard already set */
; 762  :     if (nextlen == 0) max_count = 138, min_count = 3;
; 763  : 
; 764  :     for (n = 0; n <= max_code; n++) {

  00015	48 89 5c 24 30	 mov	 QWORD PTR [rsp+48], rbx
  0001a	85 ed		 test	 ebp, ebp
  0001c	48 89 74 24 38	 mov	 QWORD PTR [rsp+56], rsi
  00021	48 8b c1	 mov	 rax, rcx
  00024	48 89 7c 24 40	 mov	 QWORD PTR [rsp+64], rdi
  00029	41 ba ff ff ff
	ff		 mov	 r10d, -1
  0002f	4c 89 64 24 18	 mov	 QWORD PTR [rsp+24], r12
  00034	bf 07 00 00 00	 mov	 edi, 7
  00039	4d 63 d8	 movsxd	 r11, r8d
  0003c	4c 8d 62 06	 lea	 r12, QWORD PTR [rdx+6]
  00040	4c 89 6c 24 10	 mov	 QWORD PTR [rsp+16], r13
  00045	41 b8 8a 00 00
	00		 mov	 r8d, 138		; 0000008aH
  0004b	44 0f 45 c7	 cmovne	 r8d, edi
  0004f	4c 89 74 24 08	 mov	 QWORD PTR [rsp+8], r14
  00054	33 c9		 xor	 ecx, ecx
  00056	4c 89 3c 24	 mov	 QWORD PTR [rsp], r15
  0005a	85 ed		 test	 ebp, ebp
  0005c	4d 8d 6b 01	 lea	 r13, QWORD PTR [r11+1]
  00060	0f 95 c1	 setne	 cl
  00063	83 c1 03	 add	 ecx, 3
  00066	66 66 0f 1f 84
	00 00 00 00 00	 npad	 10
$LL4@send_tree:

; 765  :         curlen = nextlen; nextlen = tree[n+1].Len;
; 766  :         if (++count < max_count && curlen == nextlen) {

  00070	41 8b d9	 mov	 ebx, r9d
  00073	44 8b f5	 mov	 r14d, ebp
  00076	41 ff c1	 inc	 r9d
  00079	44 8b fd	 mov	 r15d, ebp
  0007c	41 0f b7 2c 24	 movzx	 ebp, WORD PTR [r12]
  00081	45 3b c8	 cmp	 r9d, r8d
  00084	7d 09		 jge	 SHORT $LN9@send_tree
  00086	44 3b f5	 cmp	 r14d, ebp
  00089	0f 84 aa 04 00
	00		 je	 $LN2@send_tree
$LN9@send_tree:

; 767  :             continue;
; 768  :         } else if (count < min_count) {

  0008f	44 3b c9	 cmp	 r9d, ecx
  00092	0f 8d b3 00 00
	00		 jge	 $LN11@send_tree
  00098	4a 8d 3c b0	 lea	 rdi, QWORD PTR [rax+r14*4]
  0009c	4a 8d 34 b0	 lea	 rsi, QWORD PTR [rax+r14*4]
$LL7@send_tree:

; 769  :             do { send_code(s, curlen, s->bl_tree); } while (--count != 0);

  000a0	44 0f b7 9f a6
	0a 00 00	 movzx	 r11d, WORD PTR [rdi+2726]
  000a8	ba 10 00 00 00	 mov	 edx, 16
  000ad	8b 88 10 17 00
	00		 mov	 ecx, DWORD PTR [rax+5904]
  000b3	41 2b d3	 sub	 edx, r11d
  000b6	44 0f b7 96 a4
	0a 00 00	 movzx	 r10d, WORD PTR [rsi+2724]
  000be	0f b7 98 0c 17
	00 00		 movzx	 ebx, WORD PTR [rax+5900]
  000c5	3b ca		 cmp	 ecx, edx
  000c7	7e 55		 jle	 SHORT $LN13@send_tree
  000c9	8b 50 28	 mov	 edx, DWORD PTR [rax+40]
  000cc	45 0f b7 c2	 movzx	 r8d, r10w
  000d0	66 41 d3 e0	 shl	 r8w, cl
  000d4	48 8b 48 10	 mov	 rcx, QWORD PTR [rax+16]
  000d8	66 44 0b c3	 or	 r8w, bx
  000dc	66 44 89 80 0c
	17 00 00	 mov	 WORD PTR [rax+5900], r8w
  000e4	44 88 04 0a	 mov	 BYTE PTR [rdx+rcx], r8b
  000e8	ff 40 28	 inc	 DWORD PTR [rax+40]
  000eb	44 8b 40 28	 mov	 r8d, DWORD PTR [rax+40]
  000ef	48 8b 50 10	 mov	 rdx, QWORD PTR [rax+16]
  000f3	0f b6 88 0d 17
	00 00		 movzx	 ecx, BYTE PTR [rax+5901]
  000fa	41 88 0c 10	 mov	 BYTE PTR [r8+rdx], cl
  000fe	b9 10 00 00 00	 mov	 ecx, 16
  00103	8b 90 10 17 00
	00		 mov	 edx, DWORD PTR [rax+5904]
  00109	ff 40 28	 inc	 DWORD PTR [rax+40]
  0010c	83 c2 f0	 add	 edx, -16
  0010f	2a 88 10 17 00
	00		 sub	 cl, BYTE PTR [rax+5904]
  00115	41 03 d3	 add	 edx, r11d
  00118	66 41 d3 ea	 shr	 r10w, cl
  0011c	eb 0c		 jmp	 SHORT $LN5@send_tree
$LN13@send_tree:
  0011e	66 41 d3 e2	 shl	 r10w, cl
  00122	42 8d 14 19	 lea	 edx, DWORD PTR [rcx+r11]
  00126	66 44 0b d3	 or	 r10w, bx
$LN5@send_tree:
  0012a	66 44 89 90 0c
	17 00 00	 mov	 WORD PTR [rax+5900], r10w
  00132	89 90 10 17 00
	00		 mov	 DWORD PTR [rax+5904], edx
  00138	41 83 e9 01	 sub	 r9d, 1
  0013c	0f 85 5e ff ff
	ff		 jne	 $LL7@send_tree

; 770  : 
; 771  :         } else if (curlen != 0) {

  00142	41 8d 79 07	 lea	 edi, QWORD PTR [r9+7]
  00146	e9 c1 03 00 00	 jmp	 $LN33@send_tree
$LN11@send_tree:
  0014b	45 85 f6	 test	 r14d, r14d
  0014e	0f 84 b5 01 00
	00		 je	 $LN15@send_tree

; 772  :             if (curlen != prevlen) {

  00154	45 3b fa	 cmp	 r15d, r10d
  00157	0f 84 9e 00 00
	00		 je	 $LN47@send_tree

; 773  :                 send_code(s, curlen, s->bl_tree); count--;

  0015d	46 0f b7 94 b0
	a6 0a 00 00	 movzx	 r10d, WORD PTR [rax+r14*4+2726]
  00166	ba 10 00 00 00	 mov	 edx, 16
  0016b	8b 88 10 17 00
	00		 mov	 ecx, DWORD PTR [rax+5904]
  00171	41 2b d2	 sub	 edx, r10d
  00174	46 0f b7 8c b0
	a4 0a 00 00	 movzx	 r9d, WORD PTR [rax+r14*4+2724]
  0017d	44 0f b7 98 0c
	17 00 00	 movzx	 r11d, WORD PTR [rax+5900]
  00185	3b ca		 cmp	 ecx, edx
  00187	7e 55		 jle	 SHORT $LN18@send_tree
  00189	8b 50 28	 mov	 edx, DWORD PTR [rax+40]
  0018c	45 0f b7 c1	 movzx	 r8d, r9w
  00190	66 41 d3 e0	 shl	 r8w, cl
  00194	48 8b 48 10	 mov	 rcx, QWORD PTR [rax+16]
  00198	66 45 0b c3	 or	 r8w, r11w
  0019c	66 44 89 80 0c
	17 00 00	 mov	 WORD PTR [rax+5900], r8w
  001a4	44 88 04 0a	 mov	 BYTE PTR [rdx+rcx], r8b
  001a8	ff 40 28	 inc	 DWORD PTR [rax+40]
  001ab	44 8b 40 28	 mov	 r8d, DWORD PTR [rax+40]
  001af	48 8b 50 10	 mov	 rdx, QWORD PTR [rax+16]
  001b3	0f b6 88 0d 17
	00 00		 movzx	 ecx, BYTE PTR [rax+5901]
  001ba	41 88 0c 10	 mov	 BYTE PTR [r8+rdx], cl
  001be	b9 10 00 00 00	 mov	 ecx, 16
  001c3	2a 88 10 17 00
	00		 sub	 cl, BYTE PTR [rax+5904]
  001c9	8b 90 10 17 00
	00		 mov	 edx, DWORD PTR [rax+5904]
  001cf	ff 40 28	 inc	 DWORD PTR [rax+40]
  001d2	83 c2 f0	 add	 edx, -16
  001d5	66 41 d3 e9	 shr	 r9w, cl
  001d9	41 03 d2	 add	 edx, r10d
  001dc	eb 0c		 jmp	 SHORT $LN49@send_tree
$LN18@send_tree:
  001de	66 41 d3 e1	 shl	 r9w, cl
  001e2	42 8d 14 11	 lea	 edx, DWORD PTR [rcx+r10]
  001e6	66 45 0b cb	 or	 r9w, r11w
$LN49@send_tree:
  001ea	66 44 89 88 0c
	17 00 00	 mov	 WORD PTR [rax+5900], r9w
  001f2	44 8b cb	 mov	 r9d, ebx
  001f5	89 90 10 17 00
	00		 mov	 DWORD PTR [rax+5904], edx
$LN47@send_tree:

; 774  :             }
; 775  :             Assert(count >= 3 && count <= 6, " 3_6?");
; 776  :             send_code(s, REP_3_6, s->bl_tree); send_bits(s, count-3, 2);

  001fb	44 0f b7 98 e6
	0a 00 00	 movzx	 r11d, WORD PTR [rax+2790]
  00203	ba 10 00 00 00	 mov	 edx, 16
  00208	8b 88 10 17 00
	00		 mov	 ecx, DWORD PTR [rax+5904]
  0020e	41 2b d3	 sub	 edx, r11d
  00211	44 0f b7 90 e4
	0a 00 00	 movzx	 r10d, WORD PTR [rax+2788]
  00219	0f b7 98 0c 17
	00 00		 movzx	 ebx, WORD PTR [rax+5900]
  00220	3b ca		 cmp	 ecx, edx
  00222	7e 55		 jle	 SHORT $LN20@send_tree
  00224	8b 50 28	 mov	 edx, DWORD PTR [rax+40]
  00227	45 0f b7 c2	 movzx	 r8d, r10w
  0022b	66 41 d3 e0	 shl	 r8w, cl
  0022f	48 8b 48 10	 mov	 rcx, QWORD PTR [rax+16]
  00233	66 44 0b c3	 or	 r8w, bx
  00237	66 44 89 80 0c
	17 00 00	 mov	 WORD PTR [rax+5900], r8w
  0023f	44 88 04 0a	 mov	 BYTE PTR [rdx+rcx], r8b
  00243	ff 40 28	 inc	 DWORD PTR [rax+40]
  00246	44 8b 40 28	 mov	 r8d, DWORD PTR [rax+40]
  0024a	48 8b 50 10	 mov	 rdx, QWORD PTR [rax+16]
  0024e	0f b6 88 0d 17
	00 00		 movzx	 ecx, BYTE PTR [rax+5901]
  00255	41 88 0c 10	 mov	 BYTE PTR [r8+rdx], cl
  00259	b9 10 00 00 00	 mov	 ecx, 16
  0025e	8b 90 10 17 00
	00		 mov	 edx, DWORD PTR [rax+5904]
  00264	ff 40 28	 inc	 DWORD PTR [rax+40]
  00267	83 c2 f0	 add	 edx, -16
  0026a	2a 88 10 17 00
	00		 sub	 cl, BYTE PTR [rax+5904]
  00270	41 03 d3	 add	 edx, r11d
  00273	66 41 d3 ea	 shr	 r10w, cl
  00277	eb 0c		 jmp	 SHORT $LN21@send_tree
$LN20@send_tree:
  00279	66 41 d3 e2	 shl	 r10w, cl
  0027d	42 8d 14 19	 lea	 edx, DWORD PTR [rcx+r11]
  00281	66 44 0b d3	 or	 r10w, bx
$LN21@send_tree:
  00285	66 41 83 e9 03	 sub	 r9w, 3
  0028a	66 44 89 90 0c
	17 00 00	 mov	 WORD PTR [rax+5900], r10w
  00292	89 90 10 17 00
	00		 mov	 DWORD PTR [rax+5904], edx
  00298	83 fa 0e	 cmp	 edx, 14
  0029b	7e 58		 jle	 SHORT $LN22@send_tree
  0029d	8b ca		 mov	 ecx, edx
  0029f	45 0f b7 c1	 movzx	 r8d, r9w
  002a3	8b 50 28	 mov	 edx, DWORD PTR [rax+40]
  002a6	66 41 d3 e0	 shl	 r8w, cl
  002aa	48 8b 48 10	 mov	 rcx, QWORD PTR [rax+16]
  002ae	66 45 0b c2	 or	 r8w, r10w
  002b2	66 44 89 80 0c
	17 00 00	 mov	 WORD PTR [rax+5900], r8w
  002ba	44 88 04 0a	 mov	 BYTE PTR [rdx+rcx], r8b
  002be	ff 40 28	 inc	 DWORD PTR [rax+40]
  002c1	44 8b 40 28	 mov	 r8d, DWORD PTR [rax+40]
  002c5	48 8b 50 10	 mov	 rdx, QWORD PTR [rax+16]
  002c9	0f b6 88 0d 17
	00 00		 movzx	 ecx, BYTE PTR [rax+5901]
  002d0	41 88 0c 10	 mov	 BYTE PTR [r8+rdx], cl
  002d4	b9 10 00 00 00	 mov	 ecx, 16
  002d9	0f b7 90 10 17
	00 00		 movzx	 edx, WORD PTR [rax+5904]
  002e0	ff 40 28	 inc	 DWORD PTR [rax+40]
  002e3	2a ca		 sub	 cl, dl
  002e5	83 80 10 17 00
	00 f2		 add	 DWORD PTR [rax+5904], -14
  002ec	66 41 d3 e9	 shr	 r9w, cl
  002f0	e9 0f 02 00 00	 jmp	 $LN23@send_tree
$LN22@send_tree:
  002f5	8d 4a 02	 lea	 ecx, DWORD PTR [rdx+2]
  002f8	89 88 10 17 00
	00		 mov	 DWORD PTR [rax+5904], ecx
  002fe	8b ca		 mov	 ecx, edx
  00300	66 41 d3 e1	 shl	 r9w, cl
  00304	e9 f7 01 00 00	 jmp	 $LN50@send_tree
$LN15@send_tree:

; 777  : 
; 778  :         } else if (count <= 10) {

  00309	8b 88 10 17 00
	00		 mov	 ecx, DWORD PTR [rax+5904]
  0030f	ba 10 00 00 00	 mov	 edx, 16
  00314	0f b7 98 0c 17
	00 00		 movzx	 ebx, WORD PTR [rax+5900]
  0031b	41 83 f9 0a	 cmp	 r9d, 10
  0031f	0f 8f f4 00 00
	00		 jg	 $LN24@send_tree

; 779  :             send_code(s, REPZ_3_10, s->bl_tree); send_bits(s, count-3, 3);

  00325	44 0f b7 98 ea
	0a 00 00	 movzx	 r11d, WORD PTR [rax+2794]
  0032d	44 0f b7 90 e8
	0a 00 00	 movzx	 r10d, WORD PTR [rax+2792]
  00335	41 2b d3	 sub	 edx, r11d
  00338	3b ca		 cmp	 ecx, edx
  0033a	7e 55		 jle	 SHORT $LN26@send_tree
  0033c	8b 50 28	 mov	 edx, DWORD PTR [rax+40]
  0033f	45 0f b7 c2	 movzx	 r8d, r10w
  00343	66 41 d3 e0	 shl	 r8w, cl
  00347	48 8b 48 10	 mov	 rcx, QWORD PTR [rax+16]
  0034b	66 44 0b c3	 or	 r8w, bx
  0034f	66 44 89 80 0c
	17 00 00	 mov	 WORD PTR [rax+5900], r8w
  00357	44 88 04 0a	 mov	 BYTE PTR [rdx+rcx], r8b
  0035b	ff 40 28	 inc	 DWORD PTR [rax+40]
  0035e	44 8b 40 28	 mov	 r8d, DWORD PTR [rax+40]
  00362	48 8b 50 10	 mov	 rdx, QWORD PTR [rax+16]
  00366	0f b6 88 0d 17
	00 00		 movzx	 ecx, BYTE PTR [rax+5901]
  0036d	41 88 0c 10	 mov	 BYTE PTR [r8+rdx], cl
  00371	b9 10 00 00 00	 mov	 ecx, 16
  00376	8b 90 10 17 00
	00		 mov	 edx, DWORD PTR [rax+5904]
  0037c	ff 40 28	 inc	 DWORD PTR [rax+40]
  0037f	83 c2 f0	 add	 edx, -16
  00382	2a 88 10 17 00
	00		 sub	 cl, BYTE PTR [rax+5904]
  00388	41 03 d3	 add	 edx, r11d
  0038b	66 41 d3 ea	 shr	 r10w, cl
  0038f	eb 0c		 jmp	 SHORT $LN27@send_tree
$LN26@send_tree:
  00391	66 41 d3 e2	 shl	 r10w, cl
  00395	42 8d 14 19	 lea	 edx, DWORD PTR [rcx+r11]
  00399	66 44 0b d3	 or	 r10w, bx
$LN27@send_tree:
  0039d	66 41 83 e9 03	 sub	 r9w, 3
  003a2	89 90 10 17 00
	00		 mov	 DWORD PTR [rax+5904], edx
  003a8	83 fa 0d	 cmp	 edx, 13
  003ab	7e 58		 jle	 SHORT $LN28@send_tree
  003ad	8b ca		 mov	 ecx, edx
  003af	45 0f b7 c1	 movzx	 r8d, r9w
  003b3	8b 50 28	 mov	 edx, DWORD PTR [rax+40]
  003b6	66 41 d3 e0	 shl	 r8w, cl
  003ba	48 8b 48 10	 mov	 rcx, QWORD PTR [rax+16]
  003be	66 45 0b c2	 or	 r8w, r10w
  003c2	66 44 89 80 0c
	17 00 00	 mov	 WORD PTR [rax+5900], r8w
  003ca	44 88 04 0a	 mov	 BYTE PTR [rdx+rcx], r8b
  003ce	ff 40 28	 inc	 DWORD PTR [rax+40]
  003d1	44 8b 40 28	 mov	 r8d, DWORD PTR [rax+40]
  003d5	48 8b 50 10	 mov	 rdx, QWORD PTR [rax+16]
  003d9	0f b6 88 0d 17
	00 00		 movzx	 ecx, BYTE PTR [rax+5901]
  003e0	41 88 0c 10	 mov	 BYTE PTR [r8+rdx], cl
  003e4	b9 10 00 00 00	 mov	 ecx, 16
  003e9	0f b7 90 10 17
	00 00		 movzx	 edx, WORD PTR [rax+5904]
  003f0	ff 40 28	 inc	 DWORD PTR [rax+40]
  003f3	2a ca		 sub	 cl, dl
  003f5	83 80 10 17 00
	00 f3		 add	 DWORD PTR [rax+5904], -13
  003fc	66 41 d3 e9	 shr	 r9w, cl
  00400	e9 ff 00 00 00	 jmp	 $LN23@send_tree
$LN28@send_tree:
  00405	8d 4a 03	 lea	 ecx, DWORD PTR [rdx+3]
  00408	89 88 10 17 00
	00		 mov	 DWORD PTR [rax+5904], ecx
  0040e	8b ca		 mov	 ecx, edx
  00410	66 41 d3 e1	 shl	 r9w, cl

; 780  : 
; 781  :         } else {

  00414	e9 e7 00 00 00	 jmp	 $LN50@send_tree
$LN24@send_tree:

; 782  :             send_code(s, REPZ_11_138, s->bl_tree); send_bits(s, count-11, 7);

  00419	44 0f b7 98 ee
	0a 00 00	 movzx	 r11d, WORD PTR [rax+2798]
  00421	44 0f b7 90 ec
	0a 00 00	 movzx	 r10d, WORD PTR [rax+2796]
  00429	41 2b d3	 sub	 edx, r11d
  0042c	3b ca		 cmp	 ecx, edx
  0042e	7e 55		 jle	 SHORT $LN30@send_tree
  00430	8b 50 28	 mov	 edx, DWORD PTR [rax+40]
  00433	45 0f b7 c2	 movzx	 r8d, r10w
  00437	66 41 d3 e0	 shl	 r8w, cl
  0043b	48 8b 48 10	 mov	 rcx, QWORD PTR [rax+16]
  0043f	66 44 0b c3	 or	 r8w, bx
  00443	66 44 89 80 0c
	17 00 00	 mov	 WORD PTR [rax+5900], r8w
  0044b	44 88 04 0a	 mov	 BYTE PTR [rdx+rcx], r8b
  0044f	ff 40 28	 inc	 DWORD PTR [rax+40]
  00452	44 8b 40 28	 mov	 r8d, DWORD PTR [rax+40]
  00456	48 8b 50 10	 mov	 rdx, QWORD PTR [rax+16]
  0045a	0f b6 88 0d 17
	00 00		 movzx	 ecx, BYTE PTR [rax+5901]
  00461	41 88 0c 10	 mov	 BYTE PTR [r8+rdx], cl
  00465	b9 10 00 00 00	 mov	 ecx, 16
  0046a	8b 90 10 17 00
	00		 mov	 edx, DWORD PTR [rax+5904]
  00470	ff 40 28	 inc	 DWORD PTR [rax+40]
  00473	83 c2 f0	 add	 edx, -16
  00476	2a 88 10 17 00
	00		 sub	 cl, BYTE PTR [rax+5904]
  0047c	41 03 d3	 add	 edx, r11d
  0047f	66 41 d3 ea	 shr	 r10w, cl
  00483	eb 0c		 jmp	 SHORT $LN31@send_tree
$LN30@send_tree:
  00485	66 41 d3 e2	 shl	 r10w, cl
  00489	42 8d 14 19	 lea	 edx, DWORD PTR [rcx+r11]
  0048d	66 44 0b d3	 or	 r10w, bx
$LN31@send_tree:
  00491	66 41 83 e9 0b	 sub	 r9w, 11
  00496	89 90 10 17 00
	00		 mov	 DWORD PTR [rax+5904], edx
  0049c	8b ca		 mov	 ecx, edx
  0049e	83 fa 09	 cmp	 edx, 9
  004a1	7e 50		 jle	 SHORT $LN32@send_tree
  004a3	8b 50 28	 mov	 edx, DWORD PTR [rax+40]
  004a6	45 0f b7 c1	 movzx	 r8d, r9w
  004aa	66 41 d3 e0	 shl	 r8w, cl
  004ae	48 8b 48 10	 mov	 rcx, QWORD PTR [rax+16]
  004b2	66 45 0b c2	 or	 r8w, r10w
  004b6	66 44 89 80 0c
	17 00 00	 mov	 WORD PTR [rax+5900], r8w
  004be	44 88 04 0a	 mov	 BYTE PTR [rdx+rcx], r8b
  004c2	ff 40 28	 inc	 DWORD PTR [rax+40]
  004c5	44 8b 40 28	 mov	 r8d, DWORD PTR [rax+40]
  004c9	0f b6 88 0d 17
	00 00		 movzx	 ecx, BYTE PTR [rax+5901]
  004d0	48 8b 50 10	 mov	 rdx, QWORD PTR [rax+16]
  004d4	41 88 0c 10	 mov	 BYTE PTR [r8+rdx], cl
  004d8	b9 10 00 00 00	 mov	 ecx, 16
  004dd	2a 88 10 17 00
	00		 sub	 cl, BYTE PTR [rax+5904]
  004e3	ff 40 28	 inc	 DWORD PTR [rax+40]
  004e6	66 41 d3 e9	 shr	 r9w, cl
  004ea	83 80 10 17 00
	00 f7		 add	 DWORD PTR [rax+5904], -9
  004f1	eb 11		 jmp	 SHORT $LN23@send_tree
$LN32@send_tree:
  004f3	66 41 d3 e1	 shl	 r9w, cl
  004f7	8d 4a 07	 lea	 ecx, DWORD PTR [rdx+7]
  004fa	89 88 10 17 00
	00		 mov	 DWORD PTR [rax+5904], ecx
$LN50@send_tree:

; 783  :         }
; 784  :         count = 0; prevlen = curlen;

  00500	66 45 0b ca	 or	 r9w, r10w
$LN23@send_tree:
  00504	66 44 89 88 0c
	17 00 00	 mov	 WORD PTR [rax+5900], r9w
$LN33@send_tree:
  0050c	45 33 c9	 xor	 r9d, r9d
  0050f	45 8b d7	 mov	 r10d, r15d

; 785  :         if (nextlen == 0) {

  00512	85 ed		 test	 ebp, ebp
  00514	75 0b		 jne	 SHORT $LN34@send_tree

; 786  :             max_count = 138, min_count = 3;

  00516	8d 4d 03	 lea	 ecx, QWORD PTR [rbp+3]
  00519	41 b8 8a 00 00
	00		 mov	 r8d, 138		; 0000008aH
  0051f	eb 18		 jmp	 SHORT $LN2@send_tree
$LN34@send_tree:

; 787  :         } else if (curlen == nextlen) {

  00521	44 3b f5	 cmp	 r14d, ebp
  00524	75 0b		 jne	 SHORT $LN36@send_tree

; 788  :             max_count = 6, min_count = 3;

  00526	b9 03 00 00 00	 mov	 ecx, 3
  0052b	44 8d 41 03	 lea	 r8d, QWORD PTR [rcx+3]

; 789  :         } else {

  0052f	eb 08		 jmp	 SHORT $LN2@send_tree
$LN36@send_tree:

; 790  :             max_count = 7, min_count = 4;

  00531	44 8b c7	 mov	 r8d, edi
  00534	b9 04 00 00 00	 mov	 ecx, 4
$LN2@send_tree:

; 758  :     int max_count = 7;         /* max repeat count */
; 759  :     int min_count = 4;         /* min repeat count */
; 760  : 
; 761  :     /* tree[max_code+1].Len = -1; */  /* guard already set */
; 762  :     if (nextlen == 0) max_count = 138, min_count = 3;
; 763  : 
; 764  :     for (n = 0; n <= max_code; n++) {

  00539	49 83 c4 04	 add	 r12, 4
  0053d	49 83 ed 01	 sub	 r13, 1
  00541	0f 85 29 fb ff
	ff		 jne	 $LL4@send_tree
  00547	4c 8b 3c 24	 mov	 r15, QWORD PTR [rsp]
  0054b	4c 8b 74 24 08	 mov	 r14, QWORD PTR [rsp+8]
  00550	4c 8b 6c 24 10	 mov	 r13, QWORD PTR [rsp+16]
  00555	4c 8b 64 24 18	 mov	 r12, QWORD PTR [rsp+24]
  0055a	48 8b 7c 24 40	 mov	 rdi, QWORD PTR [rsp+64]
  0055f	48 8b 74 24 38	 mov	 rsi, QWORD PTR [rsp+56]
  00564	48 8b 5c 24 30	 mov	 rbx, QWORD PTR [rsp+48]

; 791  :         }
; 792  :     }
; 793  : }

  00569	48 83 c4 20	 add	 rsp, 32			; 00000020H
  0056d	5d		 pop	 rbp
$LN48@send_tree:
  0056e	c3		 ret	 0
send_tree ENDP
_TEXT	ENDS
; Function compile flags: /Ogtpy
; File G:\1_Projects\BRDF\DisneyBRDF\zlib-1.2.12\trees.c
;	COMDAT build_bl_tree
_TEXT	SEGMENT
s$ = 48
build_bl_tree PROC					; COMDAT

; 801  : {

  00000	40 53		 push	 rbx
  00002	48 83 ec 20	 sub	 rsp, 32			; 00000020H

; 802  :     int max_blindex;  /* index of last bit length code of non zero freq */
; 803  : 
; 804  :     /* Determine the bit length frequencies for literal and distance trees */
; 805  :     scan_tree(s, (ct_data *)s->dyn_ltree, s->l_desc.max_code);

  00006	44 8b 81 48 0b
	00 00		 mov	 r8d, DWORD PTR [rcx+2888]
  0000d	48 8d 91 bc 00
	00 00		 lea	 rdx, QWORD PTR [rcx+188]
  00014	48 8b d9	 mov	 rbx, rcx
  00017	e8 00 00 00 00	 call	 scan_tree

; 806  :     scan_tree(s, (ct_data *)s->dyn_dtree, s->d_desc.max_code);

  0001c	44 8b 81 60 0b
	00 00		 mov	 r8d, DWORD PTR [rcx+2912]
  00023	48 8d 91 b0 09
	00 00		 lea	 rdx, QWORD PTR [rcx+2480]
  0002a	e8 00 00 00 00	 call	 scan_tree

; 807  : 
; 808  :     /* Build the bit length tree: */
; 809  :     build_tree(s, (tree_desc *)(&(s->bl_desc)));

  0002f	48 8d 91 70 0b
	00 00		 lea	 rdx, QWORD PTR [rcx+2928]
  00036	e8 00 00 00 00	 call	 build_tree

; 810  :     /* opt_len now includes the length of the tree representations, except
; 811  :      * the lengths of the bit lengths codes and the 5+5+4 bits for the counts.
; 812  :      */
; 813  : 
; 814  :     /* Determine the number of bit length codes to send. The pkzip format
; 815  :      * requires that at least 4 bit length codes be sent. (appnote.txt says
; 816  :      * 3 but the actual value used is 4.)
; 817  :      */
; 818  :     for (max_blindex = BL_CODES-1; max_blindex >= 3; max_blindex--) {

  0003b	ba 12 00 00 00	 mov	 edx, 18
  00040	48 8d 05 10 00
	00 00		 lea	 rax, OFFSET FLAT:bl_order+16
  00047	44 8b c2	 mov	 r8d, edx
  0004a	4c 2b c0	 sub	 r8, rax
  0004d	0f 1f 00	 npad	 3
$LL4@build_bl_t:

; 819  :         if (s->bl_tree[bl_order[max_blindex]].Len != 0) break;

  00050	0f b6 48 02	 movzx	 ecx, BYTE PTR [rax+2]
  00054	66 83 bc 8b a6
	0a 00 00 00	 cmp	 WORD PTR [rbx+rcx*4+2726], 0
  0005d	75 4b		 jne	 SHORT $LN14@build_bl_t
  0005f	0f b6 48 01	 movzx	 ecx, BYTE PTR [rax+1]
  00063	66 83 bc 8b a6
	0a 00 00 00	 cmp	 WORD PTR [rbx+rcx*4+2726], 0
  0006c	75 3a		 jne	 SHORT $LN11@build_bl_t
  0006e	0f b6 08	 movzx	 ecx, BYTE PTR [rax]
  00071	66 83 bc 8b a6
	0a 00 00 00	 cmp	 WORD PTR [rbx+rcx*4+2726], 0
  0007a	75 27		 jne	 SHORT $LN12@build_bl_t
  0007c	0f b6 48 ff	 movzx	 ecx, BYTE PTR [rax-1]
  00080	66 83 bc 8b a6
	0a 00 00 00	 cmp	 WORD PTR [rbx+rcx*4+2726], 0
  00089	75 13		 jne	 SHORT $LN13@build_bl_t

; 810  :     /* opt_len now includes the length of the tree representations, except
; 811  :      * the lengths of the bit lengths codes and the 5+5+4 bits for the counts.
; 812  :      */
; 813  : 
; 814  :     /* Determine the number of bit length codes to send. The pkzip format
; 815  :      * requires that at least 4 bit length codes be sent. (appnote.txt says
; 816  :      * 3 but the actual value used is 4.)
; 817  :      */
; 818  :     for (max_blindex = BL_CODES-1; max_blindex >= 3; max_blindex--) {

  0008b	48 83 e8 04	 sub	 rax, 4
  0008f	83 ea 04	 sub	 edx, 4
  00092	49 8d 0c 00	 lea	 rcx, QWORD PTR [r8+rax]
  00096	48 83 f9 03	 cmp	 rcx, 3
  0009a	7d b4		 jge	 SHORT $LL4@build_bl_t
  0009c	eb 0c		 jmp	 SHORT $LN14@build_bl_t
$LN13@build_bl_t:

; 819  :         if (s->bl_tree[bl_order[max_blindex]].Len != 0) break;

  0009e	83 ea 03	 sub	 edx, 3
  000a1	eb 07		 jmp	 SHORT $LN14@build_bl_t
$LN12@build_bl_t:
  000a3	83 ea 02	 sub	 edx, 2
  000a6	eb 02		 jmp	 SHORT $LN14@build_bl_t
$LN11@build_bl_t:
  000a8	ff ca		 dec	 edx
$LN14@build_bl_t:

; 820  :     }
; 821  :     /* Update opt_len to include the bit length tree and counts */
; 822  :     s->opt_len += 3*((ulg)max_blindex+1) + 5+5+4;

  000aa	8d 0c 55 11 00
	00 00		 lea	 ecx, DWORD PTR [rdx*2+17]

; 823  :     Tracev((stderr, "\ndyn trees: dyn %ld, stat %ld",
; 824  :             s->opt_len, s->static_len));
; 825  : 
; 826  :     return max_blindex;

  000b1	8b c2		 mov	 eax, edx
  000b3	03 ca		 add	 ecx, edx
  000b5	01 8b fc 16 00
	00		 add	 DWORD PTR [rbx+5884], ecx

; 827  : }

  000bb	48 83 c4 20	 add	 rsp, 32			; 00000020H
  000bf	5b		 pop	 rbx
  000c0	c3		 ret	 0
build_bl_tree ENDP
_TEXT	ENDS
; Function compile flags: /Ogtpy
; File G:\1_Projects\BRDF\DisneyBRDF\zlib-1.2.12\trees.c
;	COMDAT send_all_trees
_TEXT	SEGMENT
s$ = 64
lcodes$ = 72
dcodes$ = 80
blcodes$ = 88
send_all_trees PROC					; COMDAT

; 837  : {

  00000	48 89 5c 24 08	 mov	 QWORD PTR [rsp+8], rbx
  00005	48 89 6c 24 10	 mov	 QWORD PTR [rsp+16], rbp
  0000a	48 89 74 24 18	 mov	 QWORD PTR [rsp+24], rsi
  0000f	57		 push	 rdi
  00010	41 56		 push	 r14
  00012	41 57		 push	 r15
  00014	48 83 ec 20	 sub	 rsp, 32			; 00000020H
  00018	45 8b f8	 mov	 r15d, r8d
  0001b	41 8b f1	 mov	 esi, r9d
  0001e	48 8b d9	 mov	 rbx, rcx
  00021	8b ea		 mov	 ebp, edx

; 838  :     int rank;                    /* index in bl_order */
; 839  : 
; 840  :     Assert (lcodes >= 257 && dcodes >= 1 && blcodes >= 4, "not enough codes");
; 841  :     Assert (lcodes <= L_CODES && dcodes <= D_CODES && blcodes <= BL_CODES,
; 842  :             "too many codes");
; 843  :     Tracev((stderr, "\nbl counts: "));
; 844  :     send_bits(s, lcodes-257, 5); /* not +255 as stated in appnote.txt */

  00023	8b 89 10 17 00
	00		 mov	 ecx, DWORD PTR [rcx+5904]
  00029	44 0f b7 c5	 movzx	 r8d, bp
  0002d	b8 01 01 00 00	 mov	 eax, 257		; 00000101H
  00032	66 44 2b c0	 sub	 r8w, ax
  00036	44 0f b7 8b 0c
	17 00 00	 movzx	 r9d, WORD PTR [rbx+5900]
  0003e	83 f9 0b	 cmp	 ecx, 11
  00041	7e 57		 jle	 SHORT $LN5@send_all_t
  00043	48 8b 43 10	 mov	 rax, QWORD PTR [rbx+16]
  00047	41 0f b7 d0	 movzx	 edx, r8w
  0004b	66 d3 e2	 shl	 dx, cl
  0004e	8b 4b 28	 mov	 ecx, DWORD PTR [rbx+40]
  00051	66 41 0b d1	 or	 dx, r9w
  00055	66 89 93 0c 17
	00 00		 mov	 WORD PTR [rbx+5900], dx
  0005c	88 14 01	 mov	 BYTE PTR [rcx+rax], dl
  0005f	ff 43 28	 inc	 DWORD PTR [rbx+40]
  00062	8b 53 28	 mov	 edx, DWORD PTR [rbx+40]
  00065	48 8b 4b 10	 mov	 rcx, QWORD PTR [rbx+16]
  00069	0f b6 83 0d 17
	00 00		 movzx	 eax, BYTE PTR [rbx+5901]
  00070	88 04 0a	 mov	 BYTE PTR [rdx+rcx], al
  00073	b8 10 00 00 00	 mov	 eax, 16
  00078	0f b7 8b 10 17
	00 00		 movzx	 ecx, WORD PTR [rbx+5904]
  0007f	83 83 10 17 00
	00 f5		 add	 DWORD PTR [rbx+5904], -11
  00086	2a c1		 sub	 al, cl
  00088	ff 43 28	 inc	 DWORD PTR [rbx+40]
  0008b	0f b6 c8	 movzx	 ecx, al
  0008e	8b 93 10 17 00
	00		 mov	 edx, DWORD PTR [rbx+5904]
  00094	66 41 d3 e8	 shr	 r8w, cl
  00098	eb 11		 jmp	 SHORT $LN6@send_all_t
$LN5@send_all_t:
  0009a	8d 51 05	 lea	 edx, DWORD PTR [rcx+5]
  0009d	66 41 d3 e0	 shl	 r8w, cl
  000a1	89 93 10 17 00
	00		 mov	 DWORD PTR [rbx+5904], edx
  000a7	66 45 0b c1	 or	 r8w, r9w
$LN6@send_all_t:

; 845  :     send_bits(s, dcodes-1,   5);

  000ab	45 8d 5f ff	 lea	 r11d, DWORD PTR [r15-1]
  000af	8b ca		 mov	 ecx, edx
  000b1	83 fa 0b	 cmp	 edx, 11
  000b4	7e 57		 jle	 SHORT $LN7@send_all_t
  000b6	48 8b 43 10	 mov	 rax, QWORD PTR [rbx+16]
  000ba	41 0f b7 d3	 movzx	 edx, r11w
  000be	66 d3 e2	 shl	 dx, cl
  000c1	8b 4b 28	 mov	 ecx, DWORD PTR [rbx+40]
  000c4	66 41 0b d0	 or	 dx, r8w
  000c8	66 89 93 0c 17
	00 00		 mov	 WORD PTR [rbx+5900], dx
  000cf	88 14 01	 mov	 BYTE PTR [rcx+rax], dl
  000d2	ff 43 28	 inc	 DWORD PTR [rbx+40]
  000d5	8b 53 28	 mov	 edx, DWORD PTR [rbx+40]
  000d8	48 8b 4b 10	 mov	 rcx, QWORD PTR [rbx+16]
  000dc	0f b6 83 0d 17
	00 00		 movzx	 eax, BYTE PTR [rbx+5901]
  000e3	88 04 0a	 mov	 BYTE PTR [rdx+rcx], al
  000e6	b8 10 00 00 00	 mov	 eax, 16
  000eb	0f b7 8b 10 17
	00 00		 movzx	 ecx, WORD PTR [rbx+5904]
  000f2	83 83 10 17 00
	00 f5		 add	 DWORD PTR [rbx+5904], -11
  000f9	2a c1		 sub	 al, cl
  000fb	ff 43 28	 inc	 DWORD PTR [rbx+40]
  000fe	0f b6 c8	 movzx	 ecx, al
  00101	8b bb 10 17 00
	00		 mov	 edi, DWORD PTR [rbx+5904]
  00107	66 41 d3 eb	 shr	 r11w, cl
  0010b	eb 11		 jmp	 SHORT $LN8@send_all_t
$LN7@send_all_t:
  0010d	8d 7a 05	 lea	 edi, DWORD PTR [rdx+5]
  00110	66 41 d3 e3	 shl	 r11w, cl
  00114	89 bb 10 17 00
	00		 mov	 DWORD PTR [rbx+5904], edi
  0011a	66 45 0b d8	 or	 r11w, r8w
$LN8@send_all_t:

; 846  :     send_bits(s, blcodes-4,  4); /* not -3 as stated in appnote.txt */

  0011e	44 8d 4e fc	 lea	 r9d, DWORD PTR [rsi-4]
  00122	8b cf		 mov	 ecx, edi
  00124	83 ff 0c	 cmp	 edi, 12
  00127	7e 57		 jle	 SHORT $LN9@send_all_t
  00129	48 8b 43 10	 mov	 rax, QWORD PTR [rbx+16]
  0012d	41 0f b7 d1	 movzx	 edx, r9w
  00131	66 d3 e2	 shl	 dx, cl
  00134	8b 4b 28	 mov	 ecx, DWORD PTR [rbx+40]
  00137	66 41 0b d3	 or	 dx, r11w
  0013b	66 89 93 0c 17
	00 00		 mov	 WORD PTR [rbx+5900], dx
  00142	88 14 01	 mov	 BYTE PTR [rcx+rax], dl
  00145	ff 43 28	 inc	 DWORD PTR [rbx+40]
  00148	8b 53 28	 mov	 edx, DWORD PTR [rbx+40]
  0014b	48 8b 4b 10	 mov	 rcx, QWORD PTR [rbx+16]
  0014f	0f b6 83 0d 17
	00 00		 movzx	 eax, BYTE PTR [rbx+5901]
  00156	88 04 0a	 mov	 BYTE PTR [rdx+rcx], al
  00159	b8 10 00 00 00	 mov	 eax, 16
  0015e	0f b7 8b 10 17
	00 00		 movzx	 ecx, WORD PTR [rbx+5904]
  00165	83 83 10 17 00
	00 f4		 add	 DWORD PTR [rbx+5904], -12
  0016c	2a c1		 sub	 al, cl
  0016e	ff 43 28	 inc	 DWORD PTR [rbx+40]
  00171	0f b6 c8	 movzx	 ecx, al
  00174	8b 93 10 17 00
	00		 mov	 edx, DWORD PTR [rbx+5904]
  0017a	66 41 d3 e9	 shr	 r9w, cl
  0017e	eb 11		 jmp	 SHORT $LN10@send_all_t
$LN9@send_all_t:
  00180	8d 57 04	 lea	 edx, DWORD PTR [rdi+4]
  00183	66 41 d3 e1	 shl	 r9w, cl
  00187	89 93 10 17 00
	00		 mov	 DWORD PTR [rbx+5904], edx
  0018d	66 45 0b cb	 or	 r9w, r11w
$LN10@send_all_t:

; 847  :     for (rank = 0; rank < blcodes; rank++) {

  00191	66 44 89 8b 0c
	17 00 00	 mov	 WORD PTR [rbx+5900], r9w
  00199	85 f6		 test	 esi, esi
  0019b	0f 8e b4 00 00
	00		 jle	 $LN3@send_all_t
  001a1	48 8d 3d 00 00
	00 00		 lea	 rdi, OFFSET FLAT:bl_order
  001a8	0f 1f 84 00 00
	00 00 00	 npad	 8
$LL4@send_all_t:

; 848  :         Tracev((stderr, "\nbl code %2d ", bl_order[rank]));
; 849  :         send_bits(s, s->bl_tree[bl_order[rank]].Len, 3);

  001b0	0f b6 07	 movzx	 eax, BYTE PTR [rdi]
  001b3	48 8d 0c 83	 lea	 rcx, QWORD PTR [rbx+rax*4]
  001b7	83 fa 0d	 cmp	 edx, 13
  001ba	7e 66		 jle	 SHORT $LN11@send_all_t
  001bc	44 0f b7 81 a6
	0a 00 00	 movzx	 r8d, WORD PTR [rcx+2726]
  001c4	8b ca		 mov	 ecx, edx
  001c6	48 8b 43 10	 mov	 rax, QWORD PTR [rbx+16]
  001ca	41 0f b7 d0	 movzx	 edx, r8w
  001ce	66 d3 e2	 shl	 dx, cl
  001d1	8b 4b 28	 mov	 ecx, DWORD PTR [rbx+40]
  001d4	66 41 0b d1	 or	 dx, r9w
  001d8	66 89 93 0c 17
	00 00		 mov	 WORD PTR [rbx+5900], dx
  001df	45 0f b7 c8	 movzx	 r9d, r8w
  001e3	88 14 01	 mov	 BYTE PTR [rcx+rax], dl
  001e6	ff 43 28	 inc	 DWORD PTR [rbx+40]
  001e9	8b 53 28	 mov	 edx, DWORD PTR [rbx+40]
  001ec	48 8b 4b 10	 mov	 rcx, QWORD PTR [rbx+16]
  001f0	0f b6 83 0d 17
	00 00		 movzx	 eax, BYTE PTR [rbx+5901]
  001f7	88 04 0a	 mov	 BYTE PTR [rdx+rcx], al
  001fa	b8 10 00 00 00	 mov	 eax, 16
  001ff	0f b7 8b 10 17
	00 00		 movzx	 ecx, WORD PTR [rbx+5904]
  00206	83 83 10 17 00
	00 f3		 add	 DWORD PTR [rbx+5904], -13
  0020d	2a c1		 sub	 al, cl
  0020f	ff 43 28	 inc	 DWORD PTR [rbx+40]
  00212	0f b6 c8	 movzx	 ecx, al
  00215	44 8b 9b 10 17
	00 00		 mov	 r11d, DWORD PTR [rbx+5904]
  0021c	66 41 d3 e9	 shr	 r9w, cl
  00220	eb 1b		 jmp	 SHORT $LN2@send_all_t
$LN11@send_all_t:
  00222	0f b7 81 a6 0a
	00 00		 movzx	 eax, WORD PTR [rcx+2726]
  00229	44 8d 5a 03	 lea	 r11d, DWORD PTR [rdx+3]
  0022d	8b ca		 mov	 ecx, edx
  0022f	44 89 9b 10 17
	00 00		 mov	 DWORD PTR [rbx+5904], r11d
  00236	66 d3 e0	 shl	 ax, cl
  00239	66 44 0b c8	 or	 r9w, ax
$LN2@send_all_t:

; 847  :     for (rank = 0; rank < blcodes; rank++) {

  0023d	48 ff c7	 inc	 rdi
  00240	66 44 89 8b 0c
	17 00 00	 mov	 WORD PTR [rbx+5900], r9w
  00248	41 8b d3	 mov	 edx, r11d
  0024b	48 83 ee 01	 sub	 rsi, 1
  0024f	0f 85 5b ff ff
	ff		 jne	 $LL4@send_all_t
$LN3@send_all_t:

; 850  :     }
; 851  :     Tracev((stderr, "\nbl tree: sent %ld", s->bits_sent));
; 852  : 
; 853  :     send_tree(s, (ct_data *)s->dyn_ltree, lcodes-1); /* literal tree */

  00255	44 8d 45 ff	 lea	 r8d, DWORD PTR [rbp-1]
  00259	48 8b cb	 mov	 rcx, rbx
  0025c	48 8d 93 bc 00
	00 00		 lea	 rdx, QWORD PTR [rbx+188]
  00263	e8 00 00 00 00	 call	 send_tree

; 854  :     Tracev((stderr, "\nlit tree: sent %ld", s->bits_sent));
; 855  : 
; 856  :     send_tree(s, (ct_data *)s->dyn_dtree, dcodes-1); /* distance tree */

  00268	45 8d 47 ff	 lea	 r8d, DWORD PTR [r15-1]
  0026c	48 8b cb	 mov	 rcx, rbx
  0026f	48 8d 93 b0 09
	00 00		 lea	 rdx, QWORD PTR [rbx+2480]

; 857  :     Tracev((stderr, "\ndist tree: sent %ld", s->bits_sent));
; 858  : }

  00276	48 8b 5c 24 40	 mov	 rbx, QWORD PTR [rsp+64]
  0027b	48 8b 6c 24 48	 mov	 rbp, QWORD PTR [rsp+72]
  00280	48 8b 74 24 50	 mov	 rsi, QWORD PTR [rsp+80]
  00285	48 83 c4 20	 add	 rsp, 32			; 00000020H
  00289	41 5f		 pop	 r15
  0028b	41 5e		 pop	 r14
  0028d	5f		 pop	 rdi

; 854  :     Tracev((stderr, "\nlit tree: sent %ld", s->bits_sent));
; 855  : 
; 856  :     send_tree(s, (ct_data *)s->dyn_dtree, dcodes-1); /* distance tree */

  0028e	e9 00 00 00 00	 jmp	 send_tree
send_all_trees ENDP
_TEXT	ENDS
; Function compile flags: /Ogtpy
; File G:\1_Projects\BRDF\DisneyBRDF\zlib-1.2.12\trees.c
;	COMDAT compress_block
_TEXT	SEGMENT
s$ = 48
ltree$ = 56
dtree$ = 64
compress_block PROC					; COMDAT

; 1047 : {

  00000	40 57		 push	 rdi
  00002	48 83 ec 20	 sub	 rsp, 32			; 00000020H
  00006	48 89 6c 24 38	 mov	 QWORD PTR [rsp+56], rbp
  0000b	48 8b c1	 mov	 rax, rcx

; 1048 :     unsigned dist;      /* distance of matched string */
; 1049 :     int lc;             /* match length or unmatched char (if dist == 0) */
; 1050 :     unsigned sx = 0;    /* running index in sym_buf */

  0000e	33 ed		 xor	 ebp, ebp
  00010	4c 89 64 24 18	 mov	 QWORD PTR [rsp+24], r12
  00015	4d 8b e0	 mov	 r12, r8
  00018	4c 89 3c 24	 mov	 QWORD PTR [rsp], r15
  0001c	4c 8b fa	 mov	 r15, rdx

; 1051 :     unsigned code;      /* the code to send */
; 1052 :     int extra;          /* number of extra bits to send */
; 1053 : 
; 1054 :     if (s->sym_next != 0) do {

  0001f	8d 7d 10	 lea	 edi, QWORD PTR [rbp+16]
  00022	39 a9 f4 16 00
	00		 cmp	 DWORD PTR [rcx+5876], ebp
  00028	0f 84 6a 03 00
	00		 je	 $LN3@compress_b
  0002e	4c 89 6c 24 10	 mov	 QWORD PTR [rsp+16], r13
  00033	4c 8d 2d 00 00
	00 00		 lea	 r13, OFFSET FLAT:__ImageBase
  0003a	48 89 5c 24 30	 mov	 QWORD PTR [rsp+48], rbx
  0003f	48 89 74 24 40	 mov	 QWORD PTR [rsp+64], rsi
  00044	4c 89 74 24 08	 mov	 QWORD PTR [rsp+8], r14
  00049	0f 1f 80 00 00
	00 00		 npad	 7
$LL4@compress_b:

; 1055 :         dist = s->sym_buf[sx++] & 0xff;

  00050	4c 8b 80 e8 16
	00 00		 mov	 r8, QWORD PTR [rax+5864]
  00057	46 0f b6 4c 05
	00		 movzx	 r9d, BYTE PTR [rbp+r8]
  0005d	ff c5		 inc	 ebp

; 1056 :         dist += (unsigned)(s->sym_buf[sx++] & 0xff) << 8;

  0005f	42 0f b6 54 05
	00		 movzx	 edx, BYTE PTR [rbp+r8]
  00065	ff c5		 inc	 ebp
  00067	c1 e2 08	 shl	 edx, 8

; 1057 :         lc = s->sym_buf[sx++];

  0006a	46 0f b6 54 05
	00		 movzx	 r10d, BYTE PTR [rbp+r8]
  00070	ff c5		 inc	 ebp
  00072	44 03 ca	 add	 r9d, edx

; 1058 :         if (dist == 0) {

  00075	0f 85 a2 00 00
	00		 jne	 $LN6@compress_b

; 1059 :             send_code(s, lc, ltree); /* send a literal byte */

  0007b	49 63 ca	 movsxd	 rcx, r10d
  0007e	8b d7		 mov	 edx, edi
  00080	45 0f b7 54 8f
	02		 movzx	 r10d, WORD PTR [r15+rcx*4+2]
  00086	41 2b d2	 sub	 edx, r10d
  00089	4d 8d 04 8f	 lea	 r8, QWORD PTR [r15+rcx*4]
  0008d	8b 88 10 17 00
	00		 mov	 ecx, DWORD PTR [rax+5904]
  00093	3b ca		 cmp	 ecx, edx
  00095	7e 69		 jle	 SHORT $LN8@compress_b
  00097	45 0f b7 08	 movzx	 r9d, WORD PTR [r8]
  0009b	41 0f b7 d1	 movzx	 edx, r9w
  0009f	66 d3 e2	 shl	 dx, cl
  000a2	66 09 90 0c 17
	00 00		 or	 WORD PTR [rax+5900], dx
  000a9	8b 50 28	 mov	 edx, DWORD PTR [rax+40]
  000ac	48 8b 48 10	 mov	 rcx, QWORD PTR [rax+16]
  000b0	44 0f b7 80 0c
	17 00 00	 movzx	 r8d, WORD PTR [rax+5900]
  000b8	44 88 04 0a	 mov	 BYTE PTR [rdx+rcx], r8b
  000bc	ff 40 28	 inc	 DWORD PTR [rax+40]
  000bf	0f b6 88 0d 17
	00 00		 movzx	 ecx, BYTE PTR [rax+5901]
  000c6	44 8b 40 28	 mov	 r8d, DWORD PTR [rax+40]
  000ca	48 8b 50 10	 mov	 rdx, QWORD PTR [rax+16]
  000ce	41 88 0c 10	 mov	 BYTE PTR [r8+rdx], cl
  000d2	8b cf		 mov	 ecx, edi
  000d4	2a 88 10 17 00
	00		 sub	 cl, BYTE PTR [rax+5904]
  000da	8b 90 10 17 00
	00		 mov	 edx, DWORD PTR [rax+5904]
  000e0	ff 40 28	 inc	 DWORD PTR [rax+40]
  000e3	83 c2 f0	 add	 edx, -16
  000e6	66 41 d3 e9	 shr	 r9w, cl
  000ea	41 03 d2	 add	 edx, r10d
  000ed	66 44 89 88 0c
	17 00 00	 mov	 WORD PTR [rax+5900], r9w

; 1060 :             Tracecv(isgraph(lc), (stderr," '%c' ", lc));
; 1061 :         } else {

  000f5	89 90 10 17 00
	00		 mov	 DWORD PTR [rax+5904], edx
  000fb	e9 78 02 00 00	 jmp	 $LN2@compress_b
$LN8@compress_b:

; 1059 :             send_code(s, lc, ltree); /* send a literal byte */

  00100	41 0f b7 10	 movzx	 edx, WORD PTR [r8]
  00104	66 d3 e2	 shl	 dx, cl
  00107	66 09 90 0c 17
	00 00		 or	 WORD PTR [rax+5900], dx
  0010e	42 8d 14 11	 lea	 edx, DWORD PTR [rcx+r10]

; 1060 :             Tracecv(isgraph(lc), (stderr," '%c' ", lc));
; 1061 :         } else {

  00112	89 90 10 17 00
	00		 mov	 DWORD PTR [rax+5904], edx
  00118	e9 5b 02 00 00	 jmp	 $LN2@compress_b
$LN6@compress_b:

; 1062 :             /* Here, lc is the match length - MIN_MATCH */
; 1063 :             code = _length_code[lc];

  0011d	47 0f b6 b4 2a
	00 00 00 00	 movzx	 r14d, BYTE PTR _length_code[r10+r13]

; 1064 :             send_code(s, code+LITERALS+1, ltree); /* send the length code */

  00126	0f b7 b0 0c 17
	00 00		 movzx	 esi, WORD PTR [rax+5900]
  0012d	41 8d 8e 01 01
	00 00		 lea	 ecx, DWORD PTR [r14+257]
  00134	41 0f b7 5c 8f
	02		 movzx	 ebx, WORD PTR [r15+rcx*4+2]
  0013a	8b d1		 mov	 edx, ecx
  0013c	8b 88 10 17 00
	00		 mov	 ecx, DWORD PTR [rax+5904]
  00142	45 0f b7 1c 97	 movzx	 r11d, WORD PTR [r15+rdx*4]
  00147	8b d7		 mov	 edx, edi
  00149	2b d3		 sub	 edx, ebx
  0014b	3b ca		 cmp	 ecx, edx
  0014d	7e 51		 jle	 SHORT $LN10@compress_b
  0014f	8b 50 28	 mov	 edx, DWORD PTR [rax+40]
  00152	45 0f b7 c3	 movzx	 r8d, r11w
  00156	66 41 d3 e0	 shl	 r8w, cl
  0015a	48 8b 48 10	 mov	 rcx, QWORD PTR [rax+16]
  0015e	66 44 0b c6	 or	 r8w, si
  00162	66 44 89 80 0c
	17 00 00	 mov	 WORD PTR [rax+5900], r8w
  0016a	44 88 04 0a	 mov	 BYTE PTR [rdx+rcx], r8b
  0016e	ff 40 28	 inc	 DWORD PTR [rax+40]
  00171	44 8b 40 28	 mov	 r8d, DWORD PTR [rax+40]
  00175	0f b6 88 0d 17
	00 00		 movzx	 ecx, BYTE PTR [rax+5901]
  0017c	48 8b 50 10	 mov	 rdx, QWORD PTR [rax+16]
  00180	41 88 0c 10	 mov	 BYTE PTR [r8+rdx], cl
  00184	8b 88 10 17 00
	00		 mov	 ecx, DWORD PTR [rax+5904]
  0018a	ff 40 28	 inc	 DWORD PTR [rax+40]
  0018d	83 c1 f0	 add	 ecx, -16
  00190	03 d9		 add	 ebx, ecx
  00192	8b cf		 mov	 ecx, edi
  00194	2a 88 10 17 00
	00		 sub	 cl, BYTE PTR [rax+5904]
  0019a	66 41 d3 eb	 shr	 r11w, cl
  0019e	eb 0a		 jmp	 SHORT $LN11@compress_b
$LN10@compress_b:
  001a0	03 d9		 add	 ebx, ecx
  001a2	66 41 d3 e3	 shl	 r11w, cl
  001a6	66 44 0b de	 or	 r11w, si
$LN11@compress_b:

; 1065 :             extra = extra_lbits[code];

  001aa	66 44 89 98 0c
	17 00 00	 mov	 WORD PTR [rax+5900], r11w
  001b2	89 98 10 17 00
	00		 mov	 DWORD PTR [rax+5904], ebx
  001b8	43 8b b4 b5 00
	00 00 00	 mov	 esi, DWORD PTR extra_lbits[r13+r14*4]

; 1066 :             if (extra != 0) {

  001c0	85 f6		 test	 esi, esi
  001c2	74 7d		 je	 SHORT $LN14@compress_b

; 1067 :                 lc -= base_length[code];

  001c4	47 2b 94 b5 00
	00 00 00	 sub	 r10d, DWORD PTR base_length[r13+r14*4]

; 1068 :                 send_bits(s, lc, extra);       /* send the extra length bits */

  001cc	8b cb		 mov	 ecx, ebx
  001ce	41 0f b7 d2	 movzx	 edx, r10w
  001d2	44 8b c7	 mov	 r8d, edi
  001d5	66 d3 e2	 shl	 dx, cl
  001d8	44 2b c6	 sub	 r8d, esi
  001db	66 44 0b da	 or	 r11w, dx
  001df	66 44 89 98 0c
	17 00 00	 mov	 WORD PTR [rax+5900], r11w
  001e7	41 3b d8	 cmp	 ebx, r8d
  001ea	7e 4d		 jle	 SHORT $LN13@compress_b
  001ec	8b 50 28	 mov	 edx, DWORD PTR [rax+40]
  001ef	48 8b 48 10	 mov	 rcx, QWORD PTR [rax+16]
  001f3	44 88 1c 0a	 mov	 BYTE PTR [rdx+rcx], r11b
  001f7	45 0f b7 da	 movzx	 r11d, r10w
  001fb	ff 40 28	 inc	 DWORD PTR [rax+40]
  001fe	0f b6 88 0d 17
	00 00		 movzx	 ecx, BYTE PTR [rax+5901]
  00205	44 8b 40 28	 mov	 r8d, DWORD PTR [rax+40]
  00209	48 8b 50 10	 mov	 rdx, QWORD PTR [rax+16]
  0020d	41 88 0c 10	 mov	 BYTE PTR [r8+rdx], cl
  00211	8b cf		 mov	 ecx, edi
  00213	2a 88 10 17 00
	00		 sub	 cl, BYTE PTR [rax+5904]
  00219	ff 40 28	 inc	 DWORD PTR [rax+40]
  0021c	66 41 d3 eb	 shr	 r11w, cl
  00220	8d 4e f0	 lea	 ecx, DWORD PTR [rsi-16]
  00223	01 88 10 17 00
	00		 add	 DWORD PTR [rax+5904], ecx
  00229	8b 98 10 17 00
	00		 mov	 ebx, DWORD PTR [rax+5904]
  0022f	66 44 89 98 0c
	17 00 00	 mov	 WORD PTR [rax+5900], r11w
  00237	eb 08		 jmp	 SHORT $LN14@compress_b
$LN13@compress_b:
  00239	03 de		 add	 ebx, esi
  0023b	89 98 10 17 00
	00		 mov	 DWORD PTR [rax+5904], ebx
$LN14@compress_b:

; 1069 :             }
; 1070 :             dist--; /* dist is now the match distance - 1 */

  00241	41 ff c9	 dec	 r9d

; 1071 :             code = d_code(dist);

  00244	41 81 f9 00 01
	00 00		 cmp	 r9d, 256		; 00000100H
  0024b	73 0b		 jae	 SHORT $LN23@compress_b
  0024d	43 0f b6 94 29
	00 00 00 00	 movzx	 edx, BYTE PTR _dist_code[r9+r13]
  00256	eb 15		 jmp	 SHORT $LN24@compress_b
$LN23@compress_b:
  00258	41 8b c9	 mov	 ecx, r9d
  0025b	c1 e9 07	 shr	 ecx, 7
  0025e	81 c1 00 01 00
	00		 add	 ecx, 256		; 00000100H
  00264	42 0f b6 94 29
	00 00 00 00	 movzx	 edx, BYTE PTR _dist_code[rcx+r13]
$LN24@compress_b:

; 1072 :             Assert (code < D_CODES, "bad d_code");
; 1073 : 
; 1074 :             send_code(s, code, dtree);       /* send the distance code */

  0026d	0f b6 d2	 movzx	 edx, dl
  00270	8b cb		 mov	 ecx, ebx
  00272	4c 8d 34 95 00
	00 00 00	 lea	 r14, QWORD PTR [rdx*4]
  0027a	8b d7		 mov	 edx, edi
  0027c	43 0f b7 74 26
	02		 movzx	 esi, WORD PTR [r14+r12+2]
  00282	47 0f b7 14 26	 movzx	 r10d, WORD PTR [r14+r12]
  00287	2b d6		 sub	 edx, esi
  00289	3b da		 cmp	 ebx, edx
  0028b	7e 51		 jle	 SHORT $LN15@compress_b
  0028d	8b 50 28	 mov	 edx, DWORD PTR [rax+40]
  00290	45 0f b7 c2	 movzx	 r8d, r10w
  00294	66 41 d3 e0	 shl	 r8w, cl
  00298	48 8b 48 10	 mov	 rcx, QWORD PTR [rax+16]
  0029c	66 45 0b c3	 or	 r8w, r11w
  002a0	66 44 89 80 0c
	17 00 00	 mov	 WORD PTR [rax+5900], r8w
  002a8	44 88 04 0a	 mov	 BYTE PTR [rdx+rcx], r8b
  002ac	ff 40 28	 inc	 DWORD PTR [rax+40]
  002af	44 8b 40 28	 mov	 r8d, DWORD PTR [rax+40]
  002b3	0f b6 88 0d 17
	00 00		 movzx	 ecx, BYTE PTR [rax+5901]
  002ba	48 8b 50 10	 mov	 rdx, QWORD PTR [rax+16]
  002be	41 88 0c 10	 mov	 BYTE PTR [r8+rdx], cl
  002c2	8b 88 10 17 00
	00		 mov	 ecx, DWORD PTR [rax+5904]
  002c8	ff 40 28	 inc	 DWORD PTR [rax+40]
  002cb	83 c1 f0	 add	 ecx, -16
  002ce	03 f1		 add	 esi, ecx
  002d0	8b cf		 mov	 ecx, edi
  002d2	2a 88 10 17 00
	00		 sub	 cl, BYTE PTR [rax+5904]
  002d8	66 41 d3 ea	 shr	 r10w, cl
  002dc	eb 0a		 jmp	 SHORT $LN16@compress_b
$LN15@compress_b:
  002de	03 f3		 add	 esi, ebx
  002e0	66 41 d3 e2	 shl	 r10w, cl
  002e4	66 45 0b d3	 or	 r10w, r11w
$LN16@compress_b:

; 1075 :             extra = extra_dbits[code];

  002e8	66 44 89 90 0c
	17 00 00	 mov	 WORD PTR [rax+5900], r10w
  002f0	89 b0 10 17 00
	00		 mov	 DWORD PTR [rax+5904], esi
  002f6	47 8b 9c 2e 00
	00 00 00	 mov	 r11d, DWORD PTR extra_dbits[r14+r13]

; 1076 :             if (extra != 0) {

  002fe	45 85 db	 test	 r11d, r11d
  00301	74 75		 je	 SHORT $LN2@compress_b

; 1077 :                 dist -= (unsigned)base_dist[code];

  00303	47 2b 8c 2e 00
	00 00 00	 sub	 r9d, DWORD PTR base_dist[r14+r13]

; 1078 :                 send_bits(s, dist, extra);   /* send the extra distance bits */

  0030b	8b ce		 mov	 ecx, esi
  0030d	45 0f b7 c1	 movzx	 r8d, r9w
  00311	8b d7		 mov	 edx, edi
  00313	66 41 d3 e0	 shl	 r8w, cl
  00317	41 2b d3	 sub	 edx, r11d
  0031a	66 45 0b c2	 or	 r8w, r10w
  0031e	66 44 89 80 0c
	17 00 00	 mov	 WORD PTR [rax+5900], r8w
  00326	3b f2		 cmp	 esi, edx
  00328	7e 44		 jle	 SHORT $LN18@compress_b
  0032a	8b 50 28	 mov	 edx, DWORD PTR [rax+40]
  0032d	48 8b 48 10	 mov	 rcx, QWORD PTR [rax+16]
  00331	44 88 04 0a	 mov	 BYTE PTR [rdx+rcx], r8b
  00335	ff 40 28	 inc	 DWORD PTR [rax+40]
  00338	0f b6 88 0d 17
	00 00		 movzx	 ecx, BYTE PTR [rax+5901]
  0033f	44 8b 40 28	 mov	 r8d, DWORD PTR [rax+40]
  00343	48 8b 50 10	 mov	 rdx, QWORD PTR [rax+16]
  00347	41 88 0c 10	 mov	 BYTE PTR [r8+rdx], cl
  0034b	8b cf		 mov	 ecx, edi
  0034d	2a 88 10 17 00
	00		 sub	 cl, BYTE PTR [rax+5904]
  00353	ff 40 28	 inc	 DWORD PTR [rax+40]
  00356	66 41 d3 e9	 shr	 r9w, cl
  0035a	41 8d 4b f0	 lea	 ecx, DWORD PTR [r11-16]
  0035e	01 88 10 17 00
	00		 add	 DWORD PTR [rax+5904], ecx
  00364	66 44 89 88 0c
	17 00 00	 mov	 WORD PTR [rax+5900], r9w
  0036c	eb 0a		 jmp	 SHORT $LN2@compress_b
$LN18@compress_b:
  0036e	42 8d 0c 1e	 lea	 ecx, DWORD PTR [rsi+r11]
  00372	89 88 10 17 00
	00		 mov	 DWORD PTR [rax+5904], ecx
$LN2@compress_b:

; 1079 :             }
; 1080 :         } /* literal or match pair ? */
; 1081 : 
; 1082 :         /* Check that the overlay between pending_buf and sym_buf is ok: */
; 1083 :         Assert(s->pending < s->lit_bufsize + sx, "pendingBuf overflow");
; 1084 : 
; 1085 :     } while (sx < s->sym_next);

  00378	3b a8 f4 16 00
	00		 cmp	 ebp, DWORD PTR [rax+5876]
  0037e	0f 82 cc fc ff
	ff		 jb	 $LL4@compress_b
  00384	4c 8b 74 24 08	 mov	 r14, QWORD PTR [rsp+8]
  00389	4c 8b 6c 24 10	 mov	 r13, QWORD PTR [rsp+16]
  0038e	48 8b 74 24 40	 mov	 rsi, QWORD PTR [rsp+64]
  00393	48 8b 5c 24 30	 mov	 rbx, QWORD PTR [rsp+48]
$LN3@compress_b:

; 1086 : 
; 1087 :     send_code(s, END_BLOCK, ltree);

  00398	45 0f b7 9f 02
	04 00 00	 movzx	 r11d, WORD PTR [r15+1026]
  003a0	8b d7		 mov	 edx, edi
  003a2	8b 88 10 17 00
	00		 mov	 ecx, DWORD PTR [rax+5904]
  003a8	41 2b d3	 sub	 edx, r11d
  003ab	45 0f b7 97 00
	04 00 00	 movzx	 r10d, WORD PTR [r15+1024]
  003b3	44 0f b7 80 0c
	17 00 00	 movzx	 r8d, WORD PTR [rax+5900]
  003bb	4c 8b 3c 24	 mov	 r15, QWORD PTR [rsp]
  003bf	4c 8b 64 24 18	 mov	 r12, QWORD PTR [rsp+24]
  003c4	48 8b 6c 24 38	 mov	 rbp, QWORD PTR [rsp+56]
  003c9	3b ca		 cmp	 ecx, edx
  003cb	7e 68		 jle	 SHORT $LN20@compress_b
  003cd	48 8b 50 10	 mov	 rdx, QWORD PTR [rax+16]
  003d1	45 0f b7 ca	 movzx	 r9d, r10w
  003d5	66 41 d3 e1	 shl	 r9w, cl
  003d9	66 45 0b c8	 or	 r9w, r8w
  003dd	44 8b 40 28	 mov	 r8d, DWORD PTR [rax+40]
  003e1	66 44 89 88 0c
	17 00 00	 mov	 WORD PTR [rax+5900], r9w
  003e9	45 88 0c 10	 mov	 BYTE PTR [r8+rdx], r9b
  003ed	ff 40 28	 inc	 DWORD PTR [rax+40]
  003f0	44 8b 48 28	 mov	 r9d, DWORD PTR [rax+40]
  003f4	4c 8b 40 10	 mov	 r8, QWORD PTR [rax+16]
  003f8	0f b6 90 0d 17
	00 00		 movzx	 edx, BYTE PTR [rax+5901]
  003ff	43 88 14 01	 mov	 BYTE PTR [r9+r8], dl
  00403	45 8d 43 f0	 lea	 r8d, DWORD PTR [r11-16]
  00407	40 2a b8 10 17
	00 00		 sub	 dil, BYTE PTR [rax+5904]
  0040e	44 03 80 10 17
	00 00		 add	 r8d, DWORD PTR [rax+5904]
  00415	40 0f b6 cf	 movzx	 ecx, dil
  00419	ff 40 28	 inc	 DWORD PTR [rax+40]
  0041c	66 41 d3 ea	 shr	 r10w, cl

; 1088 : }

  00420	66 44 89 90 0c
	17 00 00	 mov	 WORD PTR [rax+5900], r10w
  00428	44 89 80 10 17
	00 00		 mov	 DWORD PTR [rax+5904], r8d
  0042f	48 83 c4 20	 add	 rsp, 32			; 00000020H
  00433	5f		 pop	 rdi
  00434	c3		 ret	 0
$LN20@compress_b:

; 1086 : 
; 1087 :     send_code(s, END_BLOCK, ltree);

  00435	66 41 d3 e2	 shl	 r10w, cl
  00439	42 8d 14 19	 lea	 edx, DWORD PTR [rcx+r11]
  0043d	66 45 0b d0	 or	 r10w, r8w

; 1088 : }

  00441	66 44 89 90 0c
	17 00 00	 mov	 WORD PTR [rax+5900], r10w
  00449	89 90 10 17 00
	00		 mov	 DWORD PTR [rax+5904], edx
  0044f	48 83 c4 20	 add	 rsp, 32			; 00000020H
  00453	5f		 pop	 rdi
  00454	c3		 ret	 0
compress_block ENDP
_TEXT	ENDS
; Function compile flags: /Ogtpy
; File G:\1_Projects\BRDF\DisneyBRDF\zlib-1.2.12\trees.c
;	COMDAT detect_data_type
_TEXT	SEGMENT
s$ = 8
detect_data_type PROC					; COMDAT

; 1105 : {

  00000	4c 8b c9	 mov	 r9, rcx

; 1106 :     /* block_mask is the bit mask of block-listed bytes
; 1107 :      * set bits 0..6, 14..25, and 28..31
; 1108 :      * 0xf3ffc07f = binary 11110011111111111100000001111111
; 1109 :      */
; 1110 :     unsigned long block_mask = 0xf3ffc07fUL;

  00003	48 8d 81 bc 00
	00 00		 lea	 rax, QWORD PTR [rcx+188]
  0000a	33 d2		 xor	 edx, edx
  0000c	41 b8 7f c0 ff
	f3		 mov	 r8d, -201342849		; f3ffc07fH
$LL4@detect_dat:

; 1115 :         if ((block_mask & 1) && (s->dyn_ltree[n].Freq != 0))

  00012	41 f6 c0 01	 test	 r8b, 1
  00016	74 06		 je	 SHORT $LN2@detect_dat
  00018	66 83 38 00	 cmp	 WORD PTR [rax], 0
  0001c	75 50		 jne	 SHORT $LN15@detect_dat
$LN2@detect_dat:

; 1111 :     int n;
; 1112 : 
; 1113 :     /* Check for non-textual ("block-listed") bytes. */
; 1114 :     for (n = 0; n <= 31; n++, block_mask >>= 1)

  0001e	48 ff c2	 inc	 rdx
  00021	41 d1 e8	 shr	 r8d, 1
  00024	48 83 c0 04	 add	 rax, 4
  00028	48 83 fa 1f	 cmp	 rdx, 31
  0002c	7e e4		 jle	 SHORT $LL4@detect_dat

; 1116 :             return Z_BINARY;
; 1117 : 
; 1118 :     /* Check for textual ("allow-listed") bytes. */
; 1119 :     if (s->dyn_ltree[9].Freq != 0 || s->dyn_ltree[10].Freq != 0
; 1120 :             || s->dyn_ltree[13].Freq != 0)

  0002e	66 83 b9 e0 00
	00 00 00	 cmp	 WORD PTR [rcx+224], 0
  00036	75 39		 jne	 SHORT $LN10@detect_dat
  00038	66 83 b9 e4 00
	00 00 00	 cmp	 WORD PTR [rcx+228], 0
  00040	75 2f		 jne	 SHORT $LN10@detect_dat
  00042	66 83 b9 f0 00
	00 00 00	 cmp	 WORD PTR [rcx+240], 0
  0004a	75 25		 jne	 SHORT $LN10@detect_dat
  0004c	b9 20 00 00 00	 mov	 ecx, 32			; 00000020H
  00051	49 8d 81 3c 01
	00 00		 lea	 rax, QWORD PTR [r9+316]
$LL7@detect_dat:

; 1123 :         if (s->dyn_ltree[n].Freq != 0)

  00058	66 83 38 00	 cmp	 WORD PTR [rax], 0
  0005c	75 13		 jne	 SHORT $LN10@detect_dat

; 1122 :     for (n = 32; n < LITERALS; n++)

  0005e	48 ff c1	 inc	 rcx
  00061	48 83 c0 04	 add	 rax, 4
  00065	48 81 f9 00 01
	00 00		 cmp	 rcx, 256		; 00000100H
  0006c	7c ea		 jl	 SHORT $LL7@detect_dat
$LN15@detect_dat:

; 1124 :             return Z_TEXT;
; 1125 : 
; 1126 :     /* There are no "block-listed" or "allow-listed" bytes:
; 1127 :      * this stream either is empty or has tolerated ("gray-listed") bytes only.
; 1128 :      */
; 1129 :     return Z_BINARY;
; 1130 : }

  0006e	33 c0		 xor	 eax, eax
  00070	c3		 ret	 0
$LN10@detect_dat:

; 1121 :         return Z_TEXT;

  00071	b8 01 00 00 00	 mov	 eax, 1

; 1124 :             return Z_TEXT;
; 1125 : 
; 1126 :     /* There are no "block-listed" or "allow-listed" bytes:
; 1127 :      * this stream either is empty or has tolerated ("gray-listed") bytes only.
; 1128 :      */
; 1129 :     return Z_BINARY;
; 1130 : }

  00076	c3		 ret	 0
detect_data_type ENDP
_TEXT	ENDS
; Function compile flags: /Ogtpy
; File G:\1_Projects\BRDF\DisneyBRDF\zlib-1.2.12\trees.c
;	COMDAT bi_reverse
_TEXT	SEGMENT
code$ = 8
len$ = 16
bi_reverse PROC						; COMDAT

; 1141 :     register unsigned res = 0;

  00000	33 c0		 xor	 eax, eax
$LL4@bi_reverse:

; 1142 :     do {
; 1143 :         res |= code & 1;

  00002	44 8b c1	 mov	 r8d, ecx

; 1144 :         code >>= 1, res <<= 1;
; 1145 :     } while (--len > 0);

  00005	ff ca		 dec	 edx
  00007	41 83 e0 01	 and	 r8d, 1
  0000b	d1 e9		 shr	 ecx, 1
  0000d	41 0b c0	 or	 eax, r8d
  00010	03 c0		 add	 eax, eax
  00012	85 d2		 test	 edx, edx
  00014	7f ec		 jg	 SHORT $LL4@bi_reverse

; 1146 :     return res >> 1;

  00016	d1 e8		 shr	 eax, 1

; 1147 : }

  00018	c3		 ret	 0
bi_reverse ENDP
_TEXT	ENDS
; Function compile flags: /Ogtpy
; File G:\1_Projects\BRDF\DisneyBRDF\zlib-1.2.12\trees.c
;	COMDAT bi_flush
_TEXT	SEGMENT
s$ = 8
bi_flush PROC						; COMDAT

; 1155 :     if (s->bi_valid == 16) {

  00000	8b 81 10 17 00
	00		 mov	 eax, DWORD PTR [rcx+5904]
  00006	4c 8b c9	 mov	 r9, rcx
  00009	83 f8 10	 cmp	 eax, 16
  0000c	75 3e		 jne	 SHORT $LN2@bi_flush

; 1156 :         put_short(s, s->bi_buf);

  0000e	0f b6 81 0c 17
	00 00		 movzx	 eax, BYTE PTR [rcx+5900]
  00015	44 8b 41 28	 mov	 r8d, DWORD PTR [rcx+40]
  00019	48 8b 51 10	 mov	 rdx, QWORD PTR [rcx+16]
  0001d	41 88 04 10	 mov	 BYTE PTR [r8+rdx], al
  00021	ff 41 28	 inc	 DWORD PTR [rcx+40]
  00024	8b 51 28	 mov	 edx, DWORD PTR [rcx+40]
  00027	41 0f b6 81 0d
	17 00 00	 movzx	 eax, BYTE PTR [r9+5901]
  0002f	48 8b 49 10	 mov	 rcx, QWORD PTR [rcx+16]
  00033	88 04 0a	 mov	 BYTE PTR [rdx+rcx], al
  00036	41 ff 41 28	 inc	 DWORD PTR [r9+40]

; 1157 :         s->bi_buf = 0;

  0003a	33 c0		 xor	 eax, eax

; 1158 :         s->bi_valid = 0;

  0003c	41 89 81 10 17
	00 00		 mov	 DWORD PTR [r9+5904], eax

; 1163 :     }
; 1164 : }

  00043	66 41 89 81 0c
	17 00 00	 mov	 WORD PTR [r9+5900], ax
  0004b	c3		 ret	 0
$LN2@bi_flush:

; 1159 :     } else if (s->bi_valid >= 8) {

  0004c	83 f8 08	 cmp	 eax, 8
  0004f	7c 2e		 jl	 SHORT $LN4@bi_flush

; 1160 :         put_byte(s, (Byte)s->bi_buf);

  00051	8b 51 28	 mov	 edx, DWORD PTR [rcx+40]
  00054	41 0f b6 81 0c
	17 00 00	 movzx	 eax, BYTE PTR [r9+5900]
  0005c	48 8b 49 10	 mov	 rcx, QWORD PTR [rcx+16]
  00060	88 04 0a	 mov	 BYTE PTR [rdx+rcx], al
  00063	41 ff 41 28	 inc	 DWORD PTR [r9+40]

; 1161 :         s->bi_buf >>= 8;

  00067	41 0f b6 81 0d
	17 00 00	 movzx	 eax, BYTE PTR [r9+5901]

; 1162 :         s->bi_valid -= 8;

  0006f	41 83 81 10 17
	00 00 f8	 add	 DWORD PTR [r9+5904], -8

; 1163 :     }
; 1164 : }

  00077	66 41 89 81 0c
	17 00 00	 mov	 WORD PTR [r9+5900], ax
$LN4@bi_flush:
  0007f	c3		 ret	 0
bi_flush ENDP
_TEXT	ENDS
; Function compile flags: /Ogtpy
; File G:\1_Projects\BRDF\DisneyBRDF\zlib-1.2.12\trees.c
;	COMDAT bi_windup
_TEXT	SEGMENT
s$ = 8
bi_windup PROC						; COMDAT

; 1172 :     if (s->bi_valid > 8) {

  00000	8b 81 10 17 00
	00		 mov	 eax, DWORD PTR [rcx+5904]
  00006	4c 8b c9	 mov	 r9, rcx
  00009	83 f8 08	 cmp	 eax, 8
  0000c	7e 1f		 jle	 SHORT $LN2@bi_windup

; 1173 :         put_short(s, s->bi_buf);

  0000e	44 8b 41 28	 mov	 r8d, DWORD PTR [rcx+40]
  00012	0f b6 81 0c 17
	00 00		 movzx	 eax, BYTE PTR [rcx+5900]
  00019	48 8b 51 10	 mov	 rdx, QWORD PTR [rcx+16]
  0001d	41 88 04 10	 mov	 BYTE PTR [r8+rdx], al
  00021	ff 41 28	 inc	 DWORD PTR [rcx+40]
  00024	0f b6 81 0d 17
	00 00		 movzx	 eax, BYTE PTR [rcx+5901]
  0002b	eb 0c		 jmp	 SHORT $LN6@bi_windup
$LN2@bi_windup:

; 1174 :     } else if (s->bi_valid > 0) {

  0002d	85 c0		 test	 eax, eax
  0002f	7e 16		 jle	 SHORT $LN4@bi_windup

; 1175 :         put_byte(s, (Byte)s->bi_buf);

  00031	41 0f b6 81 0c
	17 00 00	 movzx	 eax, BYTE PTR [r9+5900]
$LN6@bi_windup:

; 1176 :     }
; 1177 :     s->bi_buf = 0;

  00039	8b 51 28	 mov	 edx, DWORD PTR [rcx+40]
  0003c	48 8b 49 10	 mov	 rcx, QWORD PTR [rcx+16]
  00040	88 04 0a	 mov	 BYTE PTR [rdx+rcx], al
  00043	41 ff 41 28	 inc	 DWORD PTR [r9+40]
$LN4@bi_windup:
  00047	33 c0		 xor	 eax, eax
  00049	66 41 89 81 0c
	17 00 00	 mov	 WORD PTR [r9+5900], ax

; 1178 :     s->bi_valid = 0;

  00051	41 89 81 10 17
	00 00		 mov	 DWORD PTR [r9+5904], eax

; 1179 : #ifdef ZLIB_DEBUG
; 1180 :     s->bits_sent = (s->bits_sent+7) & ~7;
; 1181 : #endif
; 1182 : }

  00058	c3		 ret	 0
bi_windup ENDP
_TEXT	ENDS
END
